
L432KC_Firmware_anywhere.elf:     file format elf32-littlearm

Sections:
Idx Name          Size      VMA       LMA       File off  Algn
  0 .isr_vector   0000018c  20000000  08000000  00010000  2**0
                  CONTENTS, ALLOC, LOAD, READONLY, DATA
  1 .got          00000020  2000018c  0800018c  0001018c  2**2
                  CONTENTS, ALLOC, LOAD, DATA
  2 .got.plt      0000000c  200001ac  080001ac  000101ac  2**2
                  CONTENTS, ALLOC, LOAD, DATA
  3 .text         00001f5c  080001b8  080001b8  000101b8  2**2
                  CONTENTS, ALLOC, LOAD, READONLY, CODE
  4 .rodata       00000040  08002114  08002114  00012114  2**2
                  CONTENTS, ALLOC, LOAD, READONLY, DATA
  5 .ARM.extab    00000000  08002154  08002154  000201c4  2**0
                  CONTENTS
  6 .ARM          00000000  08002154  08002154  000201c4  2**0
                  CONTENTS
  7 .preinit_array 00000000  08002154  08002154  000201c4  2**0
                  CONTENTS, ALLOC, LOAD, DATA
  8 .init_array   00000004  08002154  08002154  00012154  2**2
                  CONTENTS, ALLOC, LOAD, DATA
  9 .fini_array   00000004  08002158  08002158  00012158  2**2
                  CONTENTS, ALLOC, LOAD, DATA
 10 .data         0000000c  200001b8  0800215c  000201b8  2**2
                  CONTENTS, ALLOC, LOAD, DATA
 11 .bss          00000074  200001c4  08002168  000201c4  2**2
                  ALLOC
 12 ._user_heap_stack 00000600  20000238  08002168  00020238  2**0
                  ALLOC
 13 .ARM.attributes 00000030  00000000  00000000  000201c4  2**0
                  CONTENTS, READONLY
 14 .debug_info   0000cda9  00000000  00000000  000201f4  2**0
                  CONTENTS, READONLY, DEBUGGING, OCTETS
 15 .debug_abbrev 00001ba9  00000000  00000000  0002cf9d  2**0
                  CONTENTS, READONLY, DEBUGGING, OCTETS
 16 .debug_aranges 00000c40  00000000  00000000  0002eb48  2**3
                  CONTENTS, READONLY, DEBUGGING, OCTETS
 17 .debug_ranges 00000b68  00000000  00000000  0002f788  2**3
                  CONTENTS, READONLY, DEBUGGING, OCTETS
 18 .debug_macro  0001f86f  00000000  00000000  000302f0  2**0
                  CONTENTS, READONLY, DEBUGGING, OCTETS
 19 .debug_line   0000caeb  00000000  00000000  0004fb5f  2**0
                  CONTENTS, READONLY, DEBUGGING, OCTETS
 20 .debug_str    000c242d  00000000  00000000  0005c64a  2**0
                  CONTENTS, READONLY, DEBUGGING, OCTETS
 21 .comment      00000053  00000000  00000000  0011ea77  2**0
                  CONTENTS, READONLY
 22 .debug_frame  0000320c  00000000  00000000  0011eacc  2**2
                  CONTENTS, READONLY, DEBUGGING, OCTETS

Disassembly of section .text:

080001b8 <__do_global_dtors_aux>:
 80001b8:	b510      	push	{r4, lr}
 80001ba:	4c05      	ldr	r4, [pc, #20]	; (80001d0 <__do_global_dtors_aux+0x18>)
 80001bc:	7823      	ldrb	r3, [r4, #0]
 80001be:	b933      	cbnz	r3, 80001ce <__do_global_dtors_aux+0x16>
 80001c0:	4b04      	ldr	r3, [pc, #16]	; (80001d4 <__do_global_dtors_aux+0x1c>)
 80001c2:	b113      	cbz	r3, 80001ca <__do_global_dtors_aux+0x12>
 80001c4:	4804      	ldr	r0, [pc, #16]	; (80001d8 <__do_global_dtors_aux+0x20>)
 80001c6:	f3af 8000 	nop.w
 80001ca:	2301      	movs	r3, #1
 80001cc:	7023      	strb	r3, [r4, #0]
 80001ce:	bd10      	pop	{r4, pc}
 80001d0:	200001c4 	.word	0x200001c4
 80001d4:	00000000 	.word	0x00000000
 80001d8:	080020fc 	.word	0x080020fc

080001dc <frame_dummy>:
 80001dc:	b508      	push	{r3, lr}
 80001de:	4b03      	ldr	r3, [pc, #12]	; (80001ec <frame_dummy+0x10>)
 80001e0:	b11b      	cbz	r3, 80001ea <frame_dummy+0xe>
 80001e2:	4903      	ldr	r1, [pc, #12]	; (80001f0 <frame_dummy+0x14>)
 80001e4:	4803      	ldr	r0, [pc, #12]	; (80001f4 <frame_dummy+0x18>)
 80001e6:	f3af 8000 	nop.w
 80001ea:	bd08      	pop	{r3, pc}
 80001ec:	00000000 	.word	0x00000000
 80001f0:	200001c8 	.word	0x200001c8
 80001f4:	080020fc 	.word	0x080020fc

080001f8 <main>:
/**
  * @brief  The application entry point.
  * @retval int
  */
int main(void)
{
 80001f8:	b580      	push	{r7, lr}
 80001fa:	af00      	add	r7, sp, #0
  HAL_Init();
 80001fc:	f000 fabd 	bl	800077a <HAL_Init>
  SystemClock_Config();
 8000200:	f000 f810 	bl	8000224 <SystemClock_Config>
  MX_GPIO_Init();
 8000204:	f000 f8cc 	bl	80003a0 <MX_GPIO_Init>
  MX_TIM7_Init();
 8000208:	f000 f86e 	bl	80002e8 <MX_TIM7_Init>
  HAL_TIM_Base_Start_IT(&htim7);
 800020c:	4b04      	ldr	r3, [pc, #16]	; (8000220 <main+0x28>)
 800020e:	f859 3003 	ldr.w	r3, [r9, r3]
 8000212:	4618      	mov	r0, r3
 8000214:	f001 fd4c 	bl	8001cb0 <HAL_TIM_Base_Start_IT>
  \details Enables IRQ interrupts by clearing the I-bit in the CPSR.
           Can only be executed in Privileged modes.
 */
__STATIC_FORCEINLINE void __enable_irq(void)
{
  __ASM volatile ("cpsie i" : : : "memory");
 8000218:	b662      	cpsie	i
}
 800021a:	bf00      	nop
  __enable_irq();

  while (1)
 800021c:	e7fe      	b.n	800021c <main+0x24>
 800021e:	bf00      	nop
 8000220:	0000001c 	.word	0x0000001c

08000224 <SystemClock_Config>:
/**
  * @brief System Clock Configuration
  * @retval None
  */
void SystemClock_Config(void)
{
 8000224:	b580      	push	{r7, lr}
 8000226:	b096      	sub	sp, #88	; 0x58
 8000228:	af00      	add	r7, sp, #0
  RCC_OscInitTypeDef RCC_OscInitStruct = {0};
 800022a:	f107 0314 	add.w	r3, r7, #20
 800022e:	2244      	movs	r2, #68	; 0x44
 8000230:	2100      	movs	r1, #0
 8000232:	4618      	mov	r0, r3
 8000234:	f001 ff5a 	bl	80020ec <memset>
  RCC_ClkInitTypeDef RCC_ClkInitStruct = {0};
 8000238:	463b      	mov	r3, r7
 800023a:	2200      	movs	r2, #0
 800023c:	601a      	str	r2, [r3, #0]
 800023e:	605a      	str	r2, [r3, #4]
 8000240:	609a      	str	r2, [r3, #8]
 8000242:	60da      	str	r2, [r3, #12]
 8000244:	611a      	str	r2, [r3, #16]

  /** Configure LSE Drive Capability
  */
  HAL_PWR_EnableBkUpAccess();
 8000246:	f000 fdfd 	bl	8000e44 <HAL_PWR_EnableBkUpAccess>
  __HAL_RCC_LSEDRIVE_CONFIG(RCC_LSEDRIVE_LOW);
 800024a:	4b26      	ldr	r3, [pc, #152]	; (80002e4 <SystemClock_Config+0xc0>)
 800024c:	f8d3 3090 	ldr.w	r3, [r3, #144]	; 0x90
 8000250:	4a24      	ldr	r2, [pc, #144]	; (80002e4 <SystemClock_Config+0xc0>)
 8000252:	f023 0318 	bic.w	r3, r3, #24
 8000256:	f8c2 3090 	str.w	r3, [r2, #144]	; 0x90
  /** Initializes the RCC Oscillators according to the specified parameters
  * in the RCC_OscInitTypeDef structure.
  */
  RCC_OscInitStruct.OscillatorType = RCC_OSCILLATORTYPE_LSE|RCC_OSCILLATORTYPE_MSI;
 800025a:	2314      	movs	r3, #20
 800025c:	617b      	str	r3, [r7, #20]
  RCC_OscInitStruct.LSEState = RCC_LSE_ON;
 800025e:	2301      	movs	r3, #1
 8000260:	61fb      	str	r3, [r7, #28]
  RCC_OscInitStruct.MSIState = RCC_MSI_ON;
 8000262:	2301      	movs	r3, #1
 8000264:	62fb      	str	r3, [r7, #44]	; 0x2c
  RCC_OscInitStruct.MSICalibrationValue = 0;
 8000266:	2300      	movs	r3, #0
 8000268:	633b      	str	r3, [r7, #48]	; 0x30
  RCC_OscInitStruct.MSIClockRange = RCC_MSIRANGE_6;
 800026a:	2360      	movs	r3, #96	; 0x60
 800026c:	637b      	str	r3, [r7, #52]	; 0x34
  RCC_OscInitStruct.PLL.PLLState = RCC_PLL_ON;
 800026e:	2302      	movs	r3, #2
 8000270:	63fb      	str	r3, [r7, #60]	; 0x3c
  RCC_OscInitStruct.PLL.PLLSource = RCC_PLLSOURCE_MSI;
 8000272:	2301      	movs	r3, #1
 8000274:	643b      	str	r3, [r7, #64]	; 0x40
  RCC_OscInitStruct.PLL.PLLM = 1;
 8000276:	2301      	movs	r3, #1
 8000278:	647b      	str	r3, [r7, #68]	; 0x44
  RCC_OscInitStruct.PLL.PLLN = 16;
 800027a:	2310      	movs	r3, #16
 800027c:	64bb      	str	r3, [r7, #72]	; 0x48
  RCC_OscInitStruct.PLL.PLLP = RCC_PLLP_DIV7;
 800027e:	2307      	movs	r3, #7
 8000280:	64fb      	str	r3, [r7, #76]	; 0x4c
  RCC_OscInitStruct.PLL.PLLQ = RCC_PLLQ_DIV2;
 8000282:	2302      	movs	r3, #2
 8000284:	653b      	str	r3, [r7, #80]	; 0x50
  RCC_OscInitStruct.PLL.PLLR = RCC_PLLR_DIV2;
 8000286:	2302      	movs	r3, #2
 8000288:	657b      	str	r3, [r7, #84]	; 0x54
  if (HAL_RCC_OscConfig(&RCC_OscInitStruct) != HAL_OK)
 800028a:	f107 0314 	add.w	r3, r7, #20
 800028e:	4618      	mov	r0, r3
 8000290:	f000 fe4e 	bl	8000f30 <HAL_RCC_OscConfig>
 8000294:	4603      	mov	r3, r0
 8000296:	2b00      	cmp	r3, #0
 8000298:	d001      	beq.n	800029e <SystemClock_Config+0x7a>
  {
    Error_Handler();
 800029a:	f000 f8cb 	bl	8000434 <Error_Handler>
  }
  /** Initializes the CPU, AHB and APB buses clocks
  */
  RCC_ClkInitStruct.ClockType = RCC_CLOCKTYPE_HCLK|RCC_CLOCKTYPE_SYSCLK
 800029e:	230f      	movs	r3, #15
 80002a0:	603b      	str	r3, [r7, #0]
                              |RCC_CLOCKTYPE_PCLK1|RCC_CLOCKTYPE_PCLK2;
  RCC_ClkInitStruct.SYSCLKSource = RCC_SYSCLKSOURCE_PLLCLK;
 80002a2:	2303      	movs	r3, #3
 80002a4:	607b      	str	r3, [r7, #4]
  RCC_ClkInitStruct.AHBCLKDivider = RCC_SYSCLK_DIV1;
 80002a6:	2300      	movs	r3, #0
 80002a8:	60bb      	str	r3, [r7, #8]
  RCC_ClkInitStruct.APB1CLKDivider = RCC_HCLK_DIV1;
 80002aa:	2300      	movs	r3, #0
 80002ac:	60fb      	str	r3, [r7, #12]
  RCC_ClkInitStruct.APB2CLKDivider = RCC_HCLK_DIV1;
 80002ae:	2300      	movs	r3, #0
 80002b0:	613b      	str	r3, [r7, #16]

  if (HAL_RCC_ClockConfig(&RCC_ClkInitStruct, FLASH_LATENCY_1) != HAL_OK)
 80002b2:	463b      	mov	r3, r7
 80002b4:	2101      	movs	r1, #1
 80002b6:	4618      	mov	r0, r3
 80002b8:	f001 fa60 	bl	800177c <HAL_RCC_ClockConfig>
 80002bc:	4603      	mov	r3, r0
 80002be:	2b00      	cmp	r3, #0
 80002c0:	d001      	beq.n	80002c6 <SystemClock_Config+0xa2>
  {
    Error_Handler();
 80002c2:	f000 f8b7 	bl	8000434 <Error_Handler>
  }
  /** Configure the main internal regulator output voltage
  */
  if (HAL_PWREx_ControlVoltageScaling(PWR_REGULATOR_VOLTAGE_SCALE1) != HAL_OK)
 80002c6:	f44f 7000 	mov.w	r0, #512	; 0x200
 80002ca:	f000 fdd9 	bl	8000e80 <HAL_PWREx_ControlVoltageScaling>
 80002ce:	4603      	mov	r3, r0
 80002d0:	2b00      	cmp	r3, #0
 80002d2:	d001      	beq.n	80002d8 <SystemClock_Config+0xb4>
  {
    Error_Handler();
 80002d4:	f000 f8ae 	bl	8000434 <Error_Handler>
  }
  /** Enable MSI Auto calibration
  */
  HAL_RCCEx_EnableMSIPLLMode();
 80002d8:	f001 fc26 	bl	8001b28 <HAL_RCCEx_EnableMSIPLLMode>
}
 80002dc:	bf00      	nop
 80002de:	3758      	adds	r7, #88	; 0x58
 80002e0:	46bd      	mov	sp, r7
 80002e2:	bd80      	pop	{r7, pc}
 80002e4:	40021000 	.word	0x40021000

080002e8 <MX_TIM7_Init>:
  * @brief TIM16 Initialization Function
  * @param None
  * @retval None
  */
static void MX_TIM7_Init(void)
{
 80002e8:	b580      	push	{r7, lr}
 80002ea:	af00      	add	r7, sp, #0
  htim7.Instance = TIM7;
 80002ec:	4b20      	ldr	r3, [pc, #128]	; (8000370 <MX_TIM7_Init+0x88>)
 80002ee:	f859 3003 	ldr.w	r3, [r9, r3]
 80002f2:	461a      	mov	r2, r3
 80002f4:	4b1d      	ldr	r3, [pc, #116]	; (800036c <MX_TIM7_Init+0x84>)
 80002f6:	6013      	str	r3, [r2, #0]
  htim7.Init.Prescaler = 48000 - 1;
 80002f8:	4b1d      	ldr	r3, [pc, #116]	; (8000370 <MX_TIM7_Init+0x88>)
 80002fa:	f859 3003 	ldr.w	r3, [r9, r3]
 80002fe:	461a      	mov	r2, r3
 8000300:	f64b 337f 	movw	r3, #47999	; 0xbb7f
 8000304:	6053      	str	r3, [r2, #4]
  htim7.Init.CounterMode = TIM_COUNTERMODE_UP;
 8000306:	4b1a      	ldr	r3, [pc, #104]	; (8000370 <MX_TIM7_Init+0x88>)
 8000308:	f859 3003 	ldr.w	r3, [r9, r3]
 800030c:	461a      	mov	r2, r3
 800030e:	2300      	movs	r3, #0
 8000310:	6093      	str	r3, [r2, #8]
  htim7.Init.Period = 1000;
 8000312:	4b17      	ldr	r3, [pc, #92]	; (8000370 <MX_TIM7_Init+0x88>)
 8000314:	f859 3003 	ldr.w	r3, [r9, r3]
 8000318:	461a      	mov	r2, r3
 800031a:	f44f 737a 	mov.w	r3, #1000	; 0x3e8
 800031e:	60d3      	str	r3, [r2, #12]
  htim7.Init.ClockDivision = TIM_CLOCKDIVISION_DIV1;
 8000320:	4b13      	ldr	r3, [pc, #76]	; (8000370 <MX_TIM7_Init+0x88>)
 8000322:	f859 3003 	ldr.w	r3, [r9, r3]
 8000326:	461a      	mov	r2, r3
 8000328:	2300      	movs	r3, #0
 800032a:	6113      	str	r3, [r2, #16]
  htim7.Init.RepetitionCounter = 0;
 800032c:	4b10      	ldr	r3, [pc, #64]	; (8000370 <MX_TIM7_Init+0x88>)
 800032e:	f859 3003 	ldr.w	r3, [r9, r3]
 8000332:	461a      	mov	r2, r3
 8000334:	2300      	movs	r3, #0
 8000336:	6153      	str	r3, [r2, #20]
  htim7.Init.AutoReloadPreload = TIM_AUTORELOAD_PRELOAD_DISABLE;
 8000338:	4b0d      	ldr	r3, [pc, #52]	; (8000370 <MX_TIM7_Init+0x88>)
 800033a:	f859 3003 	ldr.w	r3, [r9, r3]
 800033e:	461a      	mov	r2, r3
 8000340:	2300      	movs	r3, #0
 8000342:	6193      	str	r3, [r2, #24]

  HAL_TIM_Base_DeInit(&htim7);
 8000344:	4b0a      	ldr	r3, [pc, #40]	; (8000370 <MX_TIM7_Init+0x88>)
 8000346:	f859 3003 	ldr.w	r3, [r9, r3]
 800034a:	4618      	mov	r0, r3
 800034c:	f001 fc53 	bl	8001bf6 <HAL_TIM_Base_DeInit>

  if (HAL_TIM_Base_Init(&htim7) != HAL_OK)
 8000350:	4b07      	ldr	r3, [pc, #28]	; (8000370 <MX_TIM7_Init+0x88>)
 8000352:	f859 3003 	ldr.w	r3, [r9, r3]
 8000356:	4618      	mov	r0, r3
 8000358:	f001 fbf6 	bl	8001b48 <HAL_TIM_Base_Init>
 800035c:	4603      	mov	r3, r0
 800035e:	2b00      	cmp	r3, #0
 8000360:	d001      	beq.n	8000366 <MX_TIM7_Init+0x7e>
  {
    Error_Handler();
 8000362:	f000 f867 	bl	8000434 <Error_Handler>
  }
}
 8000366:	bf00      	nop
 8000368:	bd80      	pop	{r7, pc}
 800036a:	bf00      	nop
 800036c:	40001400 	.word	0x40001400
 8000370:	0000001c 	.word	0x0000001c

08000374 <HAL_TIM_PeriodElapsedCallback>:


void HAL_TIM_PeriodElapsedCallback(TIM_HandleTypeDef *htim)
{
 8000374:	b580      	push	{r7, lr}
 8000376:	b082      	sub	sp, #8
 8000378:	af00      	add	r7, sp, #0
 800037a:	6078      	str	r0, [r7, #4]
  if (htim == &htim7)
 800037c:	687b      	ldr	r3, [r7, #4]
 800037e:	4a07      	ldr	r2, [pc, #28]	; (800039c <HAL_TIM_PeriodElapsedCallback+0x28>)
 8000380:	f859 2002 	ldr.w	r2, [r9, r2]
 8000384:	4293      	cmp	r3, r2
 8000386:	d103      	bne.n	8000390 <HAL_TIM_PeriodElapsedCallback+0x1c>
  {
    HAL_GPIO_TogglePin(LD3_GPIO_Port, LD3_Pin);
 8000388:	2108      	movs	r1, #8
 800038a:	4803      	ldr	r0, [pc, #12]	; (8000398 <HAL_TIM_PeriodElapsedCallback+0x24>)
 800038c:	f000 fd40 	bl	8000e10 <HAL_GPIO_TogglePin>
  }

}
 8000390:	bf00      	nop
 8000392:	3708      	adds	r7, #8
 8000394:	46bd      	mov	sp, r7
 8000396:	bd80      	pop	{r7, pc}
 8000398:	48000400 	.word	0x48000400
 800039c:	0000001c 	.word	0x0000001c

080003a0 <MX_GPIO_Init>:
  * @brief GPIO Initialization Function
  * @param None
  * @retval None
  */
static void MX_GPIO_Init(void)
{
 80003a0:	b580      	push	{r7, lr}
 80003a2:	b088      	sub	sp, #32
 80003a4:	af00      	add	r7, sp, #0
  GPIO_InitTypeDef GPIO_InitStruct = {0};
 80003a6:	f107 030c 	add.w	r3, r7, #12
 80003aa:	2200      	movs	r2, #0
 80003ac:	601a      	str	r2, [r3, #0]
 80003ae:	605a      	str	r2, [r3, #4]
 80003b0:	609a      	str	r2, [r3, #8]
 80003b2:	60da      	str	r2, [r3, #12]
 80003b4:	611a      	str	r2, [r3, #16]

  /* GPIO Ports Clock Enable */
  __HAL_RCC_GPIOC_CLK_ENABLE();
 80003b6:	4b1d      	ldr	r3, [pc, #116]	; (800042c <MX_GPIO_Init+0x8c>)
 80003b8:	6cdb      	ldr	r3, [r3, #76]	; 0x4c
 80003ba:	4a1c      	ldr	r2, [pc, #112]	; (800042c <MX_GPIO_Init+0x8c>)
 80003bc:	f043 0304 	orr.w	r3, r3, #4
 80003c0:	64d3      	str	r3, [r2, #76]	; 0x4c
 80003c2:	4b1a      	ldr	r3, [pc, #104]	; (800042c <MX_GPIO_Init+0x8c>)
 80003c4:	6cdb      	ldr	r3, [r3, #76]	; 0x4c
 80003c6:	f003 0304 	and.w	r3, r3, #4
 80003ca:	60bb      	str	r3, [r7, #8]
 80003cc:	68bb      	ldr	r3, [r7, #8]
  __HAL_RCC_GPIOA_CLK_ENABLE();
 80003ce:	4b17      	ldr	r3, [pc, #92]	; (800042c <MX_GPIO_Init+0x8c>)
 80003d0:	6cdb      	ldr	r3, [r3, #76]	; 0x4c
 80003d2:	4a16      	ldr	r2, [pc, #88]	; (800042c <MX_GPIO_Init+0x8c>)
 80003d4:	f043 0301 	orr.w	r3, r3, #1
 80003d8:	64d3      	str	r3, [r2, #76]	; 0x4c
 80003da:	4b14      	ldr	r3, [pc, #80]	; (800042c <MX_GPIO_Init+0x8c>)
 80003dc:	6cdb      	ldr	r3, [r3, #76]	; 0x4c
 80003de:	f003 0301 	and.w	r3, r3, #1
 80003e2:	607b      	str	r3, [r7, #4]
 80003e4:	687b      	ldr	r3, [r7, #4]
  __HAL_RCC_GPIOB_CLK_ENABLE();
 80003e6:	4b11      	ldr	r3, [pc, #68]	; (800042c <MX_GPIO_Init+0x8c>)
 80003e8:	6cdb      	ldr	r3, [r3, #76]	; 0x4c
 80003ea:	4a10      	ldr	r2, [pc, #64]	; (800042c <MX_GPIO_Init+0x8c>)
 80003ec:	f043 0302 	orr.w	r3, r3, #2
 80003f0:	64d3      	str	r3, [r2, #76]	; 0x4c
 80003f2:	4b0e      	ldr	r3, [pc, #56]	; (800042c <MX_GPIO_Init+0x8c>)
 80003f4:	6cdb      	ldr	r3, [r3, #76]	; 0x4c
 80003f6:	f003 0302 	and.w	r3, r3, #2
 80003fa:	603b      	str	r3, [r7, #0]
 80003fc:	683b      	ldr	r3, [r7, #0]

  /*Configure GPIO pin Output Level */
  HAL_GPIO_WritePin(LD3_GPIO_Port, LD3_Pin, GPIO_PIN_RESET);
 80003fe:	2200      	movs	r2, #0
 8000400:	2108      	movs	r1, #8
 8000402:	480b      	ldr	r0, [pc, #44]	; (8000430 <MX_GPIO_Init+0x90>)
 8000404:	f000 fcec 	bl	8000de0 <HAL_GPIO_WritePin>

  /*Configure GPIO pin : LD3_Pin */
  GPIO_InitStruct.Pin = LD3_Pin;
 8000408:	2308      	movs	r3, #8
 800040a:	60fb      	str	r3, [r7, #12]
  GPIO_InitStruct.Mode = GPIO_MODE_OUTPUT_PP;
 800040c:	2301      	movs	r3, #1
 800040e:	613b      	str	r3, [r7, #16]
  GPIO_InitStruct.Pull = GPIO_NOPULL;
 8000410:	2300      	movs	r3, #0
 8000412:	617b      	str	r3, [r7, #20]
  GPIO_InitStruct.Speed = GPIO_SPEED_FREQ_LOW;
 8000414:	2300      	movs	r3, #0
 8000416:	61bb      	str	r3, [r7, #24]
  HAL_GPIO_Init(LD3_GPIO_Port, &GPIO_InitStruct);
 8000418:	f107 030c 	add.w	r3, r7, #12
 800041c:	4619      	mov	r1, r3
 800041e:	4804      	ldr	r0, [pc, #16]	; (8000430 <MX_GPIO_Init+0x90>)
 8000420:	f000 fb74 	bl	8000b0c <HAL_GPIO_Init>

}
 8000424:	bf00      	nop
 8000426:	3720      	adds	r7, #32
 8000428:	46bd      	mov	sp, r7
 800042a:	bd80      	pop	{r7, pc}
 800042c:	40021000 	.word	0x40021000
 8000430:	48000400 	.word	0x48000400

08000434 <Error_Handler>:
/**
  * @brief  This function is executed in case of error occurrence.
  * @retval None
  */
void Error_Handler(void)
{
 8000434:	b480      	push	{r7}
 8000436:	af00      	add	r7, sp, #0
  \details Disables IRQ interrupts by setting the I-bit in the CPSR.
           Can only be executed in Privileged modes.
 */
__STATIC_FORCEINLINE void __disable_irq(void)
{
  __ASM volatile ("cpsid i" : : : "memory");
 8000438:	b672      	cpsid	i
}
 800043a:	bf00      	nop
  /* USER CODE BEGIN Error_Handler_Debug */
  /* User can add his own implementation to report the HAL error return state */
  __disable_irq();
  while (1)
 800043c:	e7fe      	b.n	800043c <Error_Handler+0x8>
	...

08000440 <HAL_MspInit>:
/* USER CODE END 0 */
/**
  * Initializes the Global MSP.
  */
void HAL_MspInit(void)
{
 8000440:	b480      	push	{r7}
 8000442:	b083      	sub	sp, #12
 8000444:	af00      	add	r7, sp, #0
  /* USER CODE BEGIN MspInit 0 */

  /* USER CODE END MspInit 0 */

  __HAL_RCC_SYSCFG_CLK_ENABLE();
 8000446:	4b0f      	ldr	r3, [pc, #60]	; (8000484 <HAL_MspInit+0x44>)
 8000448:	6e1b      	ldr	r3, [r3, #96]	; 0x60
 800044a:	4a0e      	ldr	r2, [pc, #56]	; (8000484 <HAL_MspInit+0x44>)
 800044c:	f043 0301 	orr.w	r3, r3, #1
 8000450:	6613      	str	r3, [r2, #96]	; 0x60
 8000452:	4b0c      	ldr	r3, [pc, #48]	; (8000484 <HAL_MspInit+0x44>)
 8000454:	6e1b      	ldr	r3, [r3, #96]	; 0x60
 8000456:	f003 0301 	and.w	r3, r3, #1
 800045a:	607b      	str	r3, [r7, #4]
 800045c:	687b      	ldr	r3, [r7, #4]
  __HAL_RCC_PWR_CLK_ENABLE();
 800045e:	4b09      	ldr	r3, [pc, #36]	; (8000484 <HAL_MspInit+0x44>)
 8000460:	6d9b      	ldr	r3, [r3, #88]	; 0x58
 8000462:	4a08      	ldr	r2, [pc, #32]	; (8000484 <HAL_MspInit+0x44>)
 8000464:	f043 5380 	orr.w	r3, r3, #268435456	; 0x10000000
 8000468:	6593      	str	r3, [r2, #88]	; 0x58
 800046a:	4b06      	ldr	r3, [pc, #24]	; (8000484 <HAL_MspInit+0x44>)
 800046c:	6d9b      	ldr	r3, [r3, #88]	; 0x58
 800046e:	f003 5380 	and.w	r3, r3, #268435456	; 0x10000000
 8000472:	603b      	str	r3, [r7, #0]
 8000474:	683b      	ldr	r3, [r7, #0]
  /* System interrupt init*/

  /* USER CODE BEGIN MspInit 1 */

  /* USER CODE END MspInit 1 */
}
 8000476:	bf00      	nop
 8000478:	370c      	adds	r7, #12
 800047a:	46bd      	mov	sp, r7
 800047c:	f85d 7b04 	ldr.w	r7, [sp], #4
 8000480:	4770      	bx	lr
 8000482:	bf00      	nop
 8000484:	40021000 	.word	0x40021000

08000488 <HAL_TIM_Base_MspInit>:
* This function configures the hardware resources used in this example
* @param htim_base: TIM_Base handle pointer
* @retval None
*/
void HAL_TIM_Base_MspInit(TIM_HandleTypeDef* htim_base)
{
 8000488:	b580      	push	{r7, lr}
 800048a:	b084      	sub	sp, #16
 800048c:	af00      	add	r7, sp, #0
 800048e:	6078      	str	r0, [r7, #4]
  if(htim_base->Instance==TIM7)
 8000490:	687b      	ldr	r3, [r7, #4]
 8000492:	681b      	ldr	r3, [r3, #0]
 8000494:	4a0d      	ldr	r2, [pc, #52]	; (80004cc <HAL_TIM_Base_MspInit+0x44>)
 8000496:	4293      	cmp	r3, r2
 8000498:	d113      	bne.n	80004c2 <HAL_TIM_Base_MspInit+0x3a>
  {
    /* Peripheral clock enable */
    __HAL_RCC_TIM7_CLK_ENABLE();
 800049a:	4b0d      	ldr	r3, [pc, #52]	; (80004d0 <HAL_TIM_Base_MspInit+0x48>)
 800049c:	6d9b      	ldr	r3, [r3, #88]	; 0x58
 800049e:	4a0c      	ldr	r2, [pc, #48]	; (80004d0 <HAL_TIM_Base_MspInit+0x48>)
 80004a0:	f043 0320 	orr.w	r3, r3, #32
 80004a4:	6593      	str	r3, [r2, #88]	; 0x58
 80004a6:	4b0a      	ldr	r3, [pc, #40]	; (80004d0 <HAL_TIM_Base_MspInit+0x48>)
 80004a8:	6d9b      	ldr	r3, [r3, #88]	; 0x58
 80004aa:	f003 0320 	and.w	r3, r3, #32
 80004ae:	60fb      	str	r3, [r7, #12]
 80004b0:	68fb      	ldr	r3, [r7, #12]
    /* TIM7 interrupt Init */
    HAL_NVIC_SetPriority(TIM7_IRQn, 0, 0);
 80004b2:	2200      	movs	r2, #0
 80004b4:	2100      	movs	r1, #0
 80004b6:	2037      	movs	r0, #55	; 0x37
 80004b8:	f000 fae3 	bl	8000a82 <HAL_NVIC_SetPriority>
    HAL_NVIC_EnableIRQ(TIM7_IRQn);
 80004bc:	2037      	movs	r0, #55	; 0x37
 80004be:	f000 fafc 	bl	8000aba <HAL_NVIC_EnableIRQ>
  }

}
 80004c2:	bf00      	nop
 80004c4:	3710      	adds	r7, #16
 80004c6:	46bd      	mov	sp, r7
 80004c8:	bd80      	pop	{r7, pc}
 80004ca:	bf00      	nop
 80004cc:	40001400 	.word	0x40001400
 80004d0:	40021000 	.word	0x40021000

080004d4 <HAL_TIM_Base_MspDeInit>:
* This function freeze the hardware resources used in this example
* @param htim_base: TIM_Base handle pointer
* @retval None
*/
void HAL_TIM_Base_MspDeInit(TIM_HandleTypeDef* htim_base)
{
 80004d4:	b580      	push	{r7, lr}
 80004d6:	b082      	sub	sp, #8
 80004d8:	af00      	add	r7, sp, #0
 80004da:	6078      	str	r0, [r7, #4]
  if(htim_base->Instance==TIM7)
 80004dc:	687b      	ldr	r3, [r7, #4]
 80004de:	681b      	ldr	r3, [r3, #0]
 80004e0:	4a07      	ldr	r2, [pc, #28]	; (8000500 <HAL_TIM_Base_MspDeInit+0x2c>)
 80004e2:	4293      	cmp	r3, r2
 80004e4:	d108      	bne.n	80004f8 <HAL_TIM_Base_MspDeInit+0x24>
  {
    /* Peripheral clock disable */
    __HAL_RCC_TIM16_CLK_DISABLE();
 80004e6:	4b07      	ldr	r3, [pc, #28]	; (8000504 <HAL_TIM_Base_MspDeInit+0x30>)
 80004e8:	6e1b      	ldr	r3, [r3, #96]	; 0x60
 80004ea:	4a06      	ldr	r2, [pc, #24]	; (8000504 <HAL_TIM_Base_MspDeInit+0x30>)
 80004ec:	f423 3300 	bic.w	r3, r3, #131072	; 0x20000
 80004f0:	6613      	str	r3, [r2, #96]	; 0x60

    /* TIM7 interrupt DeInit */
    HAL_NVIC_DisableIRQ(TIM7_IRQn);
 80004f2:	2037      	movs	r0, #55	; 0x37
 80004f4:	f000 faef 	bl	8000ad6 <HAL_NVIC_DisableIRQ>
  }

}
 80004f8:	bf00      	nop
 80004fa:	3708      	adds	r7, #8
 80004fc:	46bd      	mov	sp, r7
 80004fe:	bd80      	pop	{r7, pc}
 8000500:	40001400 	.word	0x40001400
 8000504:	40021000 	.word	0x40021000

08000508 <NMI_Handler>:
/******************************************************************************/
/**
  * @brief This function handles Non maskable interrupt.
  */
void NMI_Handler(void)
{
 8000508:	b480      	push	{r7}
 800050a:	af00      	add	r7, sp, #0
  /* USER CODE BEGIN NonMaskableInt_IRQn 0 */

  /* USER CODE END NonMaskableInt_IRQn 0 */
  /* USER CODE BEGIN NonMaskableInt_IRQn 1 */
  while (1)
 800050c:	e7fe      	b.n	800050c <NMI_Handler+0x4>
	...

08000510 <HardFault_Handler>:

/**
  * @brief This function handles Hard fault interrupt.
  */
void HardFault_Handler(void)
{
 8000510:	b480      	push	{r7}
 8000512:	b083      	sub	sp, #12
 8000514:	af00      	add	r7, sp, #0
  /* USER CODE BEGIN HardFault_IRQn 0 */
  uint32_t u32Cfsr = *((uint32_t*)0xE000ED28);
 8000516:	4b03      	ldr	r3, [pc, #12]	; (8000524 <HardFault_Handler+0x14>)
 8000518:	681b      	ldr	r3, [r3, #0]
 800051a:	607b      	str	r3, [r7, #4]
  u32Cfsr += 0; // To stop compile nags

  uint32_t u32Bfar = *((uint32_t*)0xE000ED38);
 800051c:	4b02      	ldr	r3, [pc, #8]	; (8000528 <HardFault_Handler+0x18>)
 800051e:	681b      	ldr	r3, [r3, #0]
 8000520:	603b      	str	r3, [r7, #0]
  u32Bfar += 0;

  /* USER CODE END HardFault_IRQn 0 */
  while (1)
 8000522:	e7fe      	b.n	8000522 <HardFault_Handler+0x12>
 8000524:	e000ed28 	.word	0xe000ed28
 8000528:	e000ed38 	.word	0xe000ed38

0800052c <MemManage_Handler>:

/**
  * @brief This function handles Memory management fault.
  */
void MemManage_Handler(void)
{
 800052c:	b480      	push	{r7}
 800052e:	af00      	add	r7, sp, #0
  /* USER CODE BEGIN MemoryManagement_IRQn 0 */

  /* USER CODE END MemoryManagement_IRQn 0 */
  while (1)
 8000530:	e7fe      	b.n	8000530 <MemManage_Handler+0x4>

08000532 <BusFault_Handler>:

/**
  * @brief This function handles Prefetch fault, memory access fault.
  */
void BusFault_Handler(void)
{
 8000532:	b480      	push	{r7}
 8000534:	af00      	add	r7, sp, #0
  /* USER CODE BEGIN BusFault_IRQn 0 */

  /* USER CODE END BusFault_IRQn 0 */
  while (1)
 8000536:	e7fe      	b.n	8000536 <BusFault_Handler+0x4>

08000538 <UsageFault_Handler>:

/**
  * @brief This function handles Undefined instruction or illegal state.
  */
void UsageFault_Handler(void)
{
 8000538:	b480      	push	{r7}
 800053a:	af00      	add	r7, sp, #0
  /* USER CODE BEGIN UsageFault_IRQn 0 */

  /* USER CODE END UsageFault_IRQn 0 */
  while (1)
 800053c:	e7fe      	b.n	800053c <UsageFault_Handler+0x4>

0800053e <SVC_Handler>:

/**
  * @brief This function handles System service call via SWI instruction.
  */
void SVC_Handler(void)
{
 800053e:	b480      	push	{r7}
 8000540:	af00      	add	r7, sp, #0

  /* USER CODE END SVCall_IRQn 0 */
  /* USER CODE BEGIN SVCall_IRQn 1 */

  /* USER CODE END SVCall_IRQn 1 */
}
 8000542:	bf00      	nop
 8000544:	46bd      	mov	sp, r7
 8000546:	f85d 7b04 	ldr.w	r7, [sp], #4
 800054a:	4770      	bx	lr

0800054c <DebugMon_Handler>:

/**
  * @brief This function handles Debug monitor.
  */
void DebugMon_Handler(void)
{
 800054c:	b480      	push	{r7}
 800054e:	af00      	add	r7, sp, #0

  /* USER CODE END DebugMonitor_IRQn 0 */
  /* USER CODE BEGIN DebugMonitor_IRQn 1 */

  /* USER CODE END DebugMonitor_IRQn 1 */
}
 8000550:	bf00      	nop
 8000552:	46bd      	mov	sp, r7
 8000554:	f85d 7b04 	ldr.w	r7, [sp], #4
 8000558:	4770      	bx	lr

0800055a <PendSV_Handler>:

/**
  * @brief This function handles Pendable request for system service.
  */
void PendSV_Handler(void)
{
 800055a:	b480      	push	{r7}
 800055c:	af00      	add	r7, sp, #0

  /* USER CODE END PendSV_IRQn 0 */
  /* USER CODE BEGIN PendSV_IRQn 1 */

  /* USER CODE END PendSV_IRQn 1 */
}
 800055e:	bf00      	nop
 8000560:	46bd      	mov	sp, r7
 8000562:	f85d 7b04 	ldr.w	r7, [sp], #4
 8000566:	4770      	bx	lr

08000568 <SysTick_Handler>:

/**
  * @brief This function handles System tick timer.
  */
void SysTick_Handler(void)
{
 8000568:	b580      	push	{r7, lr}
 800056a:	af00      	add	r7, sp, #0
  /* USER CODE BEGIN SysTick_IRQn 0 */

  /* USER CODE END SysTick_IRQn 0 */
  HAL_IncTick();
 800056c:	f000 f962 	bl	8000834 <HAL_IncTick>
  /* USER CODE BEGIN SysTick_IRQn 1 */

  /* USER CODE END SysTick_IRQn 1 */
}
 8000570:	bf00      	nop
 8000572:	bd80      	pop	{r7, pc}

08000574 <TIM7_IRQHandler>:

/**
  * @brief This function handles TIM16 global interrupt.
  */
void TIM7_IRQHandler(void)
{
 8000574:	b580      	push	{r7, lr}
 8000576:	af00      	add	r7, sp, #0
  HAL_TIM_IRQHandler(&htim7);
 8000578:	4b03      	ldr	r3, [pc, #12]	; (8000588 <TIM7_IRQHandler+0x14>)
 800057a:	f859 3003 	ldr.w	r3, [r9, r3]
 800057e:	4618      	mov	r0, r3
 8000580:	f001 fbea 	bl	8001d58 <HAL_TIM_IRQHandler>
}
 8000584:	bf00      	nop
 8000586:	bd80      	pop	{r7, pc}
 8000588:	0000001c 	.word	0x0000001c

0800058c <SystemInit>:
  */

extern uint32_t gu32FirmwareAbsPosition;

void SystemInit(void)
{
 800058c:	b480      	push	{r7}
 800058e:	af00      	add	r7, sp, #0
  \details Ensures the apparent order of the explicit memory operations before
           and after the instruction, without ensuring their completion.
 */
__STATIC_FORCEINLINE void __DMB(void)
{
  __ASM volatile ("dmb 0xF":::"memory");
 8000590:	f3bf 8f5f 	dmb	sy
}
 8000594:	bf00      	nop
  __DMB();
  SCB->VTOR = RAM_BEGIN; // Beginning of RAM
 8000596:	4a19      	ldr	r2, [pc, #100]	; (80005fc <SystemInit+0x70>)
 8000598:	4b1a      	ldr	r3, [pc, #104]	; (8000604 <SystemInit+0x78>)
 800059a:	f859 3003 	ldr.w	r3, [r9, r3]
 800059e:	6093      	str	r3, [r2, #8]
  __ASM volatile ("dmb 0xF":::"memory");
 80005a0:	f3bf 8f5f 	dmb	sy
}
 80005a4:	bf00      	nop
  __DMB();

  /* FPU settings ------------------------------------------------------------*/
#if (__FPU_PRESENT == 1) && (__FPU_USED == 1)
  SCB->CPACR |= ((3UL << 20U)|(3UL << 22U));  /* set CP10 and CP11 Full Access */
 80005a6:	4b15      	ldr	r3, [pc, #84]	; (80005fc <SystemInit+0x70>)
 80005a8:	f8d3 3088 	ldr.w	r3, [r3, #136]	; 0x88
 80005ac:	4a13      	ldr	r2, [pc, #76]	; (80005fc <SystemInit+0x70>)
 80005ae:	f443 0370 	orr.w	r3, r3, #15728640	; 0xf00000
 80005b2:	f8c2 3088 	str.w	r3, [r2, #136]	; 0x88
#endif

  /* Reset the RCC clock configuration to the default reset state ------------*/
  /* Set MSION bit */
  RCC->CR |= RCC_CR_MSION;
 80005b6:	4b12      	ldr	r3, [pc, #72]	; (8000600 <SystemInit+0x74>)
 80005b8:	681b      	ldr	r3, [r3, #0]
 80005ba:	4a11      	ldr	r2, [pc, #68]	; (8000600 <SystemInit+0x74>)
 80005bc:	f043 0301 	orr.w	r3, r3, #1
 80005c0:	6013      	str	r3, [r2, #0]

  /* Reset CFGR register */
  RCC->CFGR = 0x00000000U;
 80005c2:	4b0f      	ldr	r3, [pc, #60]	; (8000600 <SystemInit+0x74>)
 80005c4:	2200      	movs	r2, #0
 80005c6:	609a      	str	r2, [r3, #8]

  /* Reset HSEON, CSSON , HSION, and PLLON bits */
  RCC->CR &= 0xEAF6FFFFU;
 80005c8:	4b0d      	ldr	r3, [pc, #52]	; (8000600 <SystemInit+0x74>)
 80005ca:	681b      	ldr	r3, [r3, #0]
 80005cc:	4a0c      	ldr	r2, [pc, #48]	; (8000600 <SystemInit+0x74>)
 80005ce:	f023 53a8 	bic.w	r3, r3, #352321536	; 0x15000000
 80005d2:	f423 2310 	bic.w	r3, r3, #589824	; 0x90000
 80005d6:	6013      	str	r3, [r2, #0]

  /* Reset PLLCFGR register */
  RCC->PLLCFGR = 0x00001000U;
 80005d8:	4b09      	ldr	r3, [pc, #36]	; (8000600 <SystemInit+0x74>)
 80005da:	f44f 5280 	mov.w	r2, #4096	; 0x1000
 80005de:	60da      	str	r2, [r3, #12]

  /* Reset HSEBYP bit */
  RCC->CR &= 0xFFFBFFFFU;
 80005e0:	4b07      	ldr	r3, [pc, #28]	; (8000600 <SystemInit+0x74>)
 80005e2:	681b      	ldr	r3, [r3, #0]
 80005e4:	4a06      	ldr	r2, [pc, #24]	; (8000600 <SystemInit+0x74>)
 80005e6:	f423 2380 	bic.w	r3, r3, #262144	; 0x40000
 80005ea:	6013      	str	r3, [r2, #0]

  /* Disable all interrupts */
  RCC->CIER = 0x00000000U;
 80005ec:	4b04      	ldr	r3, [pc, #16]	; (8000600 <SystemInit+0x74>)
 80005ee:	2200      	movs	r2, #0
 80005f0:	619a      	str	r2, [r3, #24]
}
 80005f2:	bf00      	nop
 80005f4:	46bd      	mov	sp, r7
 80005f6:	f85d 7b04 	ldr.w	r7, [sp], #4
 80005fa:	4770      	bx	lr
 80005fc:	e000ed00 	.word	0xe000ed00
 8000600:	40021000 	.word	0x40021000
 8000604:	00000014 	.word	0x00000014

08000608 <Reset_Handler>:

    .section	.text.Reset_Handler
	.weak	Reset_Handler
	.type	Reset_Handler, %function
Reset_Handler:
	ldr   sp, =_estack    /* Set stack pointer */
 8000608:	f8df d124 	ldr.w	sp, [pc, #292]	; 8000730 <LoopForever+0x4>

	// Store r12 passed by bootloader as gu32FirmwareOffset
	ldr r8, =gu32FirmwareOffset
 800060c:	f8df 8124 	ldr.w	r8, [pc, #292]	; 8000734 <LoopForever+0x8>
	str r12, [r8]
 8000610:	f8c8 c000 	str.w	ip, [r8]
	// Store r11 passed by bootloader as gu32FirmwareAbsPosition
	ldr r8, =gu32FirmwareAbsPosition
 8000614:	f8df 8120 	ldr.w	r8, [pc, #288]	; 8000738 <LoopForever+0xc>
	str r11, [r8]
 8000618:	f8c8 b000 	str.w	fp, [r8]
	movs r8, #0
 800061c:	f05f 0800 	movs.w	r8, #0
	movs r11, #0
 8000620:	f05f 0b00 	movs.w	fp, #0

08000624 <GotPatchLoopInit>:

GotPatchLoopInit:
	movs r0, #0 // Loop variable
 8000624:	2000      	movs	r0, #0

08000626 <GotPatchLoopCond>:
GotPatchLoopCond:
	ldr r1, = _got_start_ram
 8000626:	4945      	ldr	r1, [pc, #276]	; (800073c <LoopForever+0x10>)
	ldr r2, = _got_end_ram
 8000628:	4a45      	ldr	r2, [pc, #276]	; (8000740 <LoopForever+0x14>)
	subs r2, r2, r1 // How many bytes is the lenght
 800062a:	1a52      	subs	r2, r2, r1
	cmp r0, r2 // Check if loop is at end
 800062c:	4290      	cmp	r0, r2
	beq GotPatchEnd // Jump to end if compare equal
 800062e:	d01a      	beq.n	8000666 <GotPatchEnd>

08000630 <GotPatchLoopBody>:
GotPatchLoopBody:
	movs r1, r0 // Copy original loop counter value to r1
 8000630:	0001      	movs	r1, r0
	adds r0, r0, #4 // Increase original loop counter r0
 8000632:	3004      	adds	r0, #4
	ldr r2, = _got_start_ram // Load got ram start
 8000634:	4a41      	ldr	r2, [pc, #260]	; (800073c <LoopForever+0x10>)
	ldr r3, = _ram_start // Load actual ram start
 8000636:	4b43      	ldr	r3, [pc, #268]	; (8000744 <LoopForever+0x18>)
	subs r2, r2, r3 // r2 now has plain got offset from where ever
 8000638:	1ad2      	subs	r2, r2, r3
	ldr r3, = _flash_start // Start to assemble flash position
 800063a:	4b43      	ldr	r3, [pc, #268]	; (8000748 <LoopForever+0x1c>)
	adds r3, r3, r12 // Add firmware offset
 800063c:	eb13 030c 	adds.w	r3, r3, ip
	adds r3, r3, r2 // Add plain offset
 8000640:	189b      	adds	r3, r3, r2
	adds r3, r3, r1 // Add loop offset to reading from flash
 8000642:	185b      	adds	r3, r3, r1
	ldr r3, [r3] // Load actual table data from flash
 8000644:	681b      	ldr	r3, [r3, #0]
	ldr r4, =_ram_start // Assemble limit to check if over start of ram, in which case don't modify (it is ram or a peripheral)
 8000646:	4c3f      	ldr	r4, [pc, #252]	; (8000744 <LoopForever+0x18>)
	cmp r3, r4 // Compare address from got and start of ram
 8000648:	42a3      	cmp	r3, r4
	bhs GotStoreTableAddressToRam // If address higher or same (hs) than start of ram, branch to copy got address as is
 800064a:	d207      	bcs.n	800065c <GotStoreTableAddressToRam>
	ldr r4, =_flash_end // Assemble limit to check if over end of flash, in which case something is just wrong, so branch to store and hope for the best
 800064c:	4c3f      	ldr	r4, [pc, #252]	; (800074c <LoopForever+0x20>)
	cmp r3, r4 // Compare address from got and end of flash
 800064e:	42a3      	cmp	r3, r4
	bhs GotStoreTableAddressToRam // If address address higher or same (hs) than end of flash, branch to store got table address data and hope for the best
 8000650:	d204      	bcs.n	800065c <GotStoreTableAddressToRam>
	ldr r4, =_flash_start // Assemble limit to check if under start of flash, in which case something is just wrong, so branch to store and hope for the best
 8000652:	4c3d      	ldr	r4, [pc, #244]	; (8000748 <LoopForever+0x1c>)
	cmp r3, r4 // Compare address from got and start of flash
 8000654:	42a3      	cmp	r3, r4
	blo GotStoreTableAddressToRam // If address address lower (lo) than start of flash, branch to store got table address data and hope for the best
 8000656:	d301      	bcc.n	800065c <GotStoreTableAddressToRam>
	adds r3, r3, r12 // Finally a position in flash. Add the offset.
 8000658:	eb13 030c 	adds.w	r3, r3, ip

0800065c <GotStoreTableAddressToRam>:
GotStoreTableAddressToRam:
	ldr r4, =_ram_start// Start getting address in ram where to put the table address value
 800065c:	4c39      	ldr	r4, [pc, #228]	; (8000744 <LoopForever+0x18>)
	adds r4, r4, r2 // Add plain offset of got
 800065e:	18a4      	adds	r4, r4, r2
	adds r4, r4, r1 // Add the original loop counter (is: 0, 4, 8, 12, ...)
 8000660:	1864      	adds	r4, r4, r1
	str r3, [r4] // Add the table address to ram
 8000662:	6023      	str	r3, [r4, #0]
	b GotPatchLoopCond // And go to check the loop
 8000664:	e7df      	b.n	8000626 <GotPatchLoopCond>

08000666 <GotPatchEnd>:
GotPatchEnd:
	ldr r9, =_got_start_ram // Putting the location of got table to agreed register r9
 8000666:	f8df 90d4 	ldr.w	r9, [pc, #212]	; 800073c <LoopForever+0x10>
	movs r0, 0 // Cleaning up the rest, just in case
 800066a:	2000      	movs	r0, #0
	movs r1, 0
 800066c:	2100      	movs	r1, #0
	movs r2, 0
 800066e:	2200      	movs	r2, #0
	movs r3, 0
 8000670:	2300      	movs	r3, #0
	movs r4, 0
 8000672:	2400      	movs	r4, #0
	movs r5, 0
 8000674:	2500      	movs	r5, #0
	movs r6, 0
 8000676:	2600      	movs	r6, #0
	movs r7, 0
 8000678:	2700      	movs	r7, #0
	movs r8, 0
 800067a:	f05f 0800 	movs.w	r8, #0
	movs r10, 0
 800067e:	f05f 0a00 	movs.w	sl, #0
	movs r11, 0
 8000682:	f05f 0b00 	movs.w	fp, #0
	movs r12, 0
 8000686:	f05f 0c00 	movs.w	ip, #0

/* Call the clock system initialization function.*/
    bl  SystemInit
 800068a:	f7ff ff7f 	bl	800058c <SystemInit>

/* Copy the data segment initializers from flash to SRAM */
  movs	r1, #0
 800068e:	2100      	movs	r1, #0
  b	LoopCopyDataInit
 8000690:	e009      	b.n	80006a6 <LoopCopyDataInit>

08000692 <CopyDataInit>:

CopyDataInit:
	ldr r12, =gu32FirmwareOffset
 8000692:	f8df c0a0 	ldr.w	ip, [pc, #160]	; 8000734 <LoopForever+0x8>
	ldr r12, [r12]
 8000696:	f8dc c000 	ldr.w	ip, [ip]
	ldr	r3, =_sidata
 800069a:	4b2d      	ldr	r3, [pc, #180]	; (8000750 <LoopForever+0x24>)
	adds r3, r3, r12
 800069c:	eb13 030c 	adds.w	r3, r3, ip
	ldr	r3, [r3, r1]
 80006a0:	585b      	ldr	r3, [r3, r1]
	str	r3, [r0, r1]
 80006a2:	5043      	str	r3, [r0, r1]
	adds	r1, r1, #4
 80006a4:	3104      	adds	r1, #4

080006a6 <LoopCopyDataInit>:

LoopCopyDataInit:
	ldr	r0, =_sdata
 80006a6:	482b      	ldr	r0, [pc, #172]	; (8000754 <LoopForever+0x28>)
	ldr	r3, =_edata
 80006a8:	4b2b      	ldr	r3, [pc, #172]	; (8000758 <LoopForever+0x2c>)
	adds	r2, r0, r1
 80006aa:	1842      	adds	r2, r0, r1
	cmp	r2, r3
 80006ac:	429a      	cmp	r2, r3
	bcc	CopyDataInit
 80006ae:	d3f0      	bcc.n	8000692 <CopyDataInit>
	ldr	r2, =_sbss
 80006b0:	4a2a      	ldr	r2, [pc, #168]	; (800075c <LoopForever+0x30>)
	adds r2, r2, r12
 80006b2:	eb12 020c 	adds.w	r2, r2, ip
	b	LoopFillZerobss
 80006b6:	e00a      	b.n	80006ce <LoopFillZerobss>

080006b8 <FillZerobss>:
/* Zero fill the bss segment. */
FillZerobss:
	movs	r3, #0
 80006b8:	2300      	movs	r3, #0
	adds r2, r2, #4 // Increment the loop counter already so ww avoid non-ending loops
 80006ba:	3204      	adds	r2, #4
	ldr r4, =gu32FirmwareOffset // Get firmware offset variable address
 80006bc:	4c1d      	ldr	r4, [pc, #116]	; (8000734 <LoopForever+0x8>)
	cmp r2, r4 // Compare address to the address we are going to zero
 80006be:	42a2      	cmp	r2, r4
	beq LoopFillZerobss // Jump away if would otherwise zero it
 80006c0:	d005      	beq.n	80006ce <LoopFillZerobss>
	ldr r4, =gu32FirmwareAbsPosition // Get firmware abs position variable address
 80006c2:	4c1d      	ldr	r4, [pc, #116]	; (8000738 <LoopForever+0xc>)
	cmp r2, r4 // Compare address to the address we are going to zero
 80006c4:	42a2      	cmp	r2, r4
	beq LoopFillZerobss // Jump away if would otherwise zero it
 80006c6:	d002      	beq.n	80006ce <LoopFillZerobss>
	subs r2, r2, #4 // Remove our own increment which was needed for special cases
 80006c8:	3a04      	subs	r2, #4
	str	r3, [r2]
 80006ca:	6013      	str	r3, [r2, #0]
	adds r2, #4
 80006cc:	3204      	adds	r2, #4

080006ce <LoopFillZerobss>:

LoopFillZerobss:
	ldr r12, =gu32FirmwareOffset
 80006ce:	f8df c064 	ldr.w	ip, [pc, #100]	; 8000734 <LoopForever+0x8>
	ldr r12, [r12]
 80006d2:	f8dc c000 	ldr.w	ip, [ip]
	ldr	r3, =_ebss
 80006d6:	4b22      	ldr	r3, [pc, #136]	; (8000760 <LoopForever+0x34>)
	cmp	r2, r3
 80006d8:	429a      	cmp	r2, r3
	bcc	FillZerobss
 80006da:	d3ed      	bcc.n	80006b8 <FillZerobss>

080006dc <CallPreinitsInit>:
/* Call static constructors */
//    bl __libc_init_array

// Make our own __libc_init_array
CallPreinitsInit:
	ldr r0, =__preinit_array_start
 80006dc:	4821      	ldr	r0, [pc, #132]	; (8000764 <LoopForever+0x38>)
	adds r0, r12
 80006de:	eb10 000c 	adds.w	r0, r0, ip
	ldr r1, =__preinit_array_end
 80006e2:	4921      	ldr	r1, [pc, #132]	; (8000768 <LoopForever+0x3c>)
	adds r1, r12
 80006e4:	eb11 010c 	adds.w	r1, r1, ip

080006e8 <CallPreinitsLoopCond>:
CallPreinitsLoopCond:
	cmp r0, r1
 80006e8:	4288      	cmp	r0, r1
	beq CallPreinitsEnd// If same, it is at end, go away
 80006ea:	d005      	beq.n	80006f8 <CallPreinitsEnd>

080006ec <CallPreinitsLoop>:
CallPreinitsLoop:
	ldr r5, =__init_array_start
 80006ec:	4d1f      	ldr	r5, [pc, #124]	; (800076c <LoopForever+0x40>)
	ldr r4, =__init_array_end // Yes, order is funny to say the least
 80006ee:	4c20      	ldr	r4, [pc, #128]	; (8000770 <LoopForever+0x44>)
	ldr r3, [r0]
 80006f0:	6803      	ldr	r3, [r0, #0]
	blx r3
 80006f2:	4798      	blx	r3
	adds r0, r0, #4
 80006f4:	3004      	adds	r0, #4
	b CallPreinitsLoopCond
 80006f6:	e7f7      	b.n	80006e8 <CallPreinitsLoopCond>

080006f8 <CallPreinitsEnd>:
CallPreinitsEnd:

	ldr r3, =_init
 80006f8:	4b1e      	ldr	r3, [pc, #120]	; (8000774 <LoopForever+0x48>)
	adds r3, r12
 80006fa:	eb13 030c 	adds.w	r3, r3, ip
	ldr r5, =__init_array_start
 80006fe:	4d1b      	ldr	r5, [pc, #108]	; (800076c <LoopForever+0x40>)
	adds r5, r12
 8000700:	eb15 050c 	adds.w	r5, r5, ip
	ldr r4, =__init_array_end
 8000704:	4c1a      	ldr	r4, [pc, #104]	; (8000770 <LoopForever+0x44>)
	adds r4, r12
 8000706:	eb14 040c 	adds.w	r4, r4, ip
	blx r3
 800070a:	4798      	blx	r3

0800070c <CallInitsInit>:

	// r4, r5 untouched or good, hopefully
CallInitsInit:
CallInitsLoopCond:
	cmp r5, r4
 800070c:	42a5      	cmp	r5, r4
	beq CallInitsEnd
 800070e:	d005      	beq.n	800071c <CallInitsEnd>

08000710 <CallInitsLoop>:
CallInitsLoop:
	ldr r3, [r5]
 8000710:	682b      	ldr	r3, [r5, #0]
	adds r3, r3, r12
 8000712:	eb13 030c 	adds.w	r3, r3, ip
	blx r3
 8000716:	4798      	blx	r3
	adds r5, r5, #4
 8000718:	3504      	adds	r5, #4
	b CallInitsLoopCond
 800071a:	e7f7      	b.n	800070c <CallInitsInit>

0800071c <CallInitsEnd>:
CallInitsEnd:
	movs r0, #0
 800071c:	2000      	movs	r0, #0
	movs r1, #0
 800071e:	2100      	movs	r1, #0
	movs r2, #0
 8000720:	2200      	movs	r2, #0
	movs r3, #0
 8000722:	2300      	movs	r3, #0
	movs r4, #0
 8000724:	2400      	movs	r4, #0
	movs r5, #0
 8000726:	2500      	movs	r5, #0


/* Call the application's entry point.*/
	bl	main
 8000728:	f7ff fd66 	bl	80001f8 <main>

0800072c <LoopForever>:

LoopForever:
    b LoopForever
 800072c:	e7fe      	b.n	800072c <LoopForever>
 800072e:	0000      	.short	0x0000
	ldr   sp, =_estack    /* Set stack pointer */
 8000730:	20010000 	.word	0x20010000
	ldr r8, =gu32FirmwareOffset
 8000734:	200001e4 	.word	0x200001e4
	ldr r8, =gu32FirmwareAbsPosition
 8000738:	200001e0 	.word	0x200001e0
	ldr r1, = _got_start_ram
 800073c:	2000018c 	.word	0x2000018c
	ldr r2, = _got_end_ram
 8000740:	200001ac 	.word	0x200001ac
	ldr r3, = _ram_start // Load actual ram start
 8000744:	20000000 	.word	0x20000000
	ldr r3, = _flash_start // Start to assemble flash position
 8000748:	08000000 	.word	0x08000000
	ldr r4, =_flash_end // Assemble limit to check if over end of flash, in which case something is just wrong, so branch to store and hope for the best
 800074c:	08010000 	.word	0x08010000
	ldr	r3, =_sidata
 8000750:	0800215c 	.word	0x0800215c
	ldr	r0, =_sdata
 8000754:	200001b8 	.word	0x200001b8
	ldr	r3, =_edata
 8000758:	200001c4 	.word	0x200001c4
	ldr	r2, =_sbss
 800075c:	200001c4 	.word	0x200001c4
	ldr	r3, =_ebss
 8000760:	20000238 	.word	0x20000238
	ldr r0, =__preinit_array_start
 8000764:	08002154 	.word	0x08002154
	ldr r1, =__preinit_array_end
 8000768:	08002154 	.word	0x08002154
	ldr r5, =__init_array_start
 800076c:	08002154 	.word	0x08002154
	ldr r4, =__init_array_end // Yes, order is funny to say the least
 8000770:	08002158 	.word	0x08002158
	ldr r3, =_init
 8000774:	080020fd 	.word	0x080020fd

08000778 <ADC1_IRQHandler>:
 * @retval : None
*/
    .section	.text.Default_Handler,"ax",%progbits
Default_Handler:
Infinite_Loop:
	b	Infinite_Loop
 8000778:	e7fe      	b.n	8000778 <ADC1_IRQHandler>

0800077a <HAL_Init>:
  *         each 1ms in the SysTick_Handler() interrupt handler.
  *
  * @retval HAL status
  */
HAL_StatusTypeDef HAL_Init(void)
{
 800077a:	b580      	push	{r7, lr}
 800077c:	b082      	sub	sp, #8
 800077e:	af00      	add	r7, sp, #0
  HAL_StatusTypeDef  status = HAL_OK;
 8000780:	2300      	movs	r3, #0
 8000782:	71fb      	strb	r3, [r7, #7]
#if (PREFETCH_ENABLE != 0)
  __HAL_FLASH_PREFETCH_BUFFER_ENABLE();
#endif /* PREFETCH_ENABLE */

  /* Set Interrupt Group Priority */
  HAL_NVIC_SetPriorityGrouping(NVIC_PRIORITYGROUP_4);
 8000784:	2003      	movs	r0, #3
 8000786:	f000 f971 	bl	8000a6c <HAL_NVIC_SetPriorityGrouping>

  /* Use SysTick as time base source and configure 1ms tick (default clock after Reset is MSI) */
  if (HAL_InitTick(TICK_INT_PRIORITY) != HAL_OK)
 800078a:	2000      	movs	r0, #0
 800078c:	f000 f80e 	bl	80007ac <HAL_InitTick>
 8000790:	4603      	mov	r3, r0
 8000792:	2b00      	cmp	r3, #0
 8000794:	d002      	beq.n	800079c <HAL_Init+0x22>
  {
    status = HAL_ERROR;
 8000796:	2301      	movs	r3, #1
 8000798:	71fb      	strb	r3, [r7, #7]
 800079a:	e001      	b.n	80007a0 <HAL_Init+0x26>
  }
  else
  {
    /* Init the low level hardware */
    HAL_MspInit();
 800079c:	f7ff fe50 	bl	8000440 <HAL_MspInit>
  }

  /* Return function status */
  return status;
 80007a0:	79fb      	ldrb	r3, [r7, #7]
}
 80007a2:	4618      	mov	r0, r3
 80007a4:	3708      	adds	r7, #8
 80007a6:	46bd      	mov	sp, r7
 80007a8:	bd80      	pop	{r7, pc}
	...

080007ac <HAL_InitTick>:
  *       implementation  in user file.
  * @param TickPriority  Tick interrupt priority.
  * @retval HAL status
  */
__weak HAL_StatusTypeDef HAL_InitTick(uint32_t TickPriority)
{
 80007ac:	b580      	push	{r7, lr}
 80007ae:	b084      	sub	sp, #16
 80007b0:	af00      	add	r7, sp, #0
 80007b2:	6078      	str	r0, [r7, #4]
  HAL_StatusTypeDef  status = HAL_OK;
 80007b4:	2300      	movs	r3, #0
 80007b6:	73fb      	strb	r3, [r7, #15]

  /* Check uwTickFreq for MisraC 2012 (even if uwTickFreq is a enum type that doesn't take the value zero)*/
  if ((uint32_t)uwTickFreq != 0U)
 80007b8:	4b1b      	ldr	r3, [pc, #108]	; (8000828 <HAL_InitTick+0x7c>)
 80007ba:	f859 3003 	ldr.w	r3, [r9, r3]
 80007be:	781b      	ldrb	r3, [r3, #0]
 80007c0:	2b00      	cmp	r3, #0
 80007c2:	d02a      	beq.n	800081a <HAL_InitTick+0x6e>
  {
    /*Configure the SysTick to have interrupt in 1ms time basis*/
    if (HAL_SYSTICK_Config(SystemCoreClock / (1000U / (uint32_t)uwTickFreq)) == 0U)
 80007c4:	4b19      	ldr	r3, [pc, #100]	; (800082c <HAL_InitTick+0x80>)
 80007c6:	f859 3003 	ldr.w	r3, [r9, r3]
 80007ca:	681a      	ldr	r2, [r3, #0]
 80007cc:	4b16      	ldr	r3, [pc, #88]	; (8000828 <HAL_InitTick+0x7c>)
 80007ce:	f859 3003 	ldr.w	r3, [r9, r3]
 80007d2:	781b      	ldrb	r3, [r3, #0]
 80007d4:	4619      	mov	r1, r3
 80007d6:	f44f 737a 	mov.w	r3, #1000	; 0x3e8
 80007da:	fbb3 f3f1 	udiv	r3, r3, r1
 80007de:	fbb2 f3f3 	udiv	r3, r2, r3
 80007e2:	4618      	mov	r0, r3
 80007e4:	f000 f985 	bl	8000af2 <HAL_SYSTICK_Config>
 80007e8:	4603      	mov	r3, r0
 80007ea:	2b00      	cmp	r3, #0
 80007ec:	d112      	bne.n	8000814 <HAL_InitTick+0x68>
    {
      /* Configure the SysTick IRQ priority */
      if (TickPriority < (1UL << __NVIC_PRIO_BITS))
 80007ee:	687b      	ldr	r3, [r7, #4]
 80007f0:	2b0f      	cmp	r3, #15
 80007f2:	d80c      	bhi.n	800080e <HAL_InitTick+0x62>
      {
        HAL_NVIC_SetPriority(SysTick_IRQn, TickPriority, 0U);
 80007f4:	2200      	movs	r2, #0
 80007f6:	6879      	ldr	r1, [r7, #4]
 80007f8:	f04f 30ff 	mov.w	r0, #4294967295
 80007fc:	f000 f941 	bl	8000a82 <HAL_NVIC_SetPriority>
        uwTickPrio = TickPriority;
 8000800:	4b0b      	ldr	r3, [pc, #44]	; (8000830 <HAL_InitTick+0x84>)
 8000802:	f859 3003 	ldr.w	r3, [r9, r3]
 8000806:	461a      	mov	r2, r3
 8000808:	687b      	ldr	r3, [r7, #4]
 800080a:	6013      	str	r3, [r2, #0]
 800080c:	e007      	b.n	800081e <HAL_InitTick+0x72>
      }
      else
      {
        status = HAL_ERROR;
 800080e:	2301      	movs	r3, #1
 8000810:	73fb      	strb	r3, [r7, #15]
 8000812:	e004      	b.n	800081e <HAL_InitTick+0x72>
      }
    }
    else
    {
      status = HAL_ERROR;
 8000814:	2301      	movs	r3, #1
 8000816:	73fb      	strb	r3, [r7, #15]
 8000818:	e001      	b.n	800081e <HAL_InitTick+0x72>
    }
  }
  else
  {
    status = HAL_ERROR;
 800081a:	2301      	movs	r3, #1
 800081c:	73fb      	strb	r3, [r7, #15]
  }

  /* Return function status */
  return status;
 800081e:	7bfb      	ldrb	r3, [r7, #15]
}
 8000820:	4618      	mov	r0, r3
 8000822:	3710      	adds	r7, #16
 8000824:	46bd      	mov	sp, r7
 8000826:	bd80      	pop	{r7, pc}
 8000828:	00000008 	.word	0x00000008
 800082c:	00000004 	.word	0x00000004
 8000830:	00000010 	.word	0x00000010

08000834 <HAL_IncTick>:
 * @note This function is declared as __weak to be overwritten in case of other
  *      implementations in user file.
  * @retval None
  */
__weak void HAL_IncTick(void)
{
 8000834:	b480      	push	{r7}
 8000836:	af00      	add	r7, sp, #0
  uwTick += (uint32_t)uwTickFreq;
 8000838:	4b09      	ldr	r3, [pc, #36]	; (8000860 <HAL_IncTick+0x2c>)
 800083a:	f859 3003 	ldr.w	r3, [r9, r3]
 800083e:	781b      	ldrb	r3, [r3, #0]
 8000840:	461a      	mov	r2, r3
 8000842:	4b08      	ldr	r3, [pc, #32]	; (8000864 <HAL_IncTick+0x30>)
 8000844:	f859 3003 	ldr.w	r3, [r9, r3]
 8000848:	681b      	ldr	r3, [r3, #0]
 800084a:	4413      	add	r3, r2
 800084c:	4a05      	ldr	r2, [pc, #20]	; (8000864 <HAL_IncTick+0x30>)
 800084e:	f859 2002 	ldr.w	r2, [r9, r2]
 8000852:	6013      	str	r3, [r2, #0]
}
 8000854:	bf00      	nop
 8000856:	46bd      	mov	sp, r7
 8000858:	f85d 7b04 	ldr.w	r7, [sp], #4
 800085c:	4770      	bx	lr
 800085e:	bf00      	nop
 8000860:	00000008 	.word	0x00000008
 8000864:	0000000c 	.word	0x0000000c

08000868 <HAL_GetTick>:
  * @note This function is declared as __weak to be overwritten in case of other
  *       implementations in user file.
  * @retval tick value
  */
__weak uint32_t HAL_GetTick(void)
{
 8000868:	b480      	push	{r7}
 800086a:	af00      	add	r7, sp, #0
  return uwTick;
 800086c:	4b04      	ldr	r3, [pc, #16]	; (8000880 <HAL_GetTick+0x18>)
 800086e:	f859 3003 	ldr.w	r3, [r9, r3]
 8000872:	681b      	ldr	r3, [r3, #0]
}
 8000874:	4618      	mov	r0, r3
 8000876:	46bd      	mov	sp, r7
 8000878:	f85d 7b04 	ldr.w	r7, [sp], #4
 800087c:	4770      	bx	lr
 800087e:	bf00      	nop
 8000880:	0000000c 	.word	0x0000000c

08000884 <__NVIC_SetPriorityGrouping>:
           In case of a conflict between priority grouping and available
           priority bits (__NVIC_PRIO_BITS), the smallest possible priority group is set.
  \param [in]      PriorityGroup  Priority grouping field.
 */
__STATIC_INLINE void __NVIC_SetPriorityGrouping(uint32_t PriorityGroup)
{
 8000884:	b480      	push	{r7}
 8000886:	b085      	sub	sp, #20
 8000888:	af00      	add	r7, sp, #0
 800088a:	6078      	str	r0, [r7, #4]
  uint32_t reg_value;
  uint32_t PriorityGroupTmp = (PriorityGroup & (uint32_t)0x07UL);             /* only values 0..7 are used          */
 800088c:	687b      	ldr	r3, [r7, #4]
 800088e:	f003 0307 	and.w	r3, r3, #7
 8000892:	60fb      	str	r3, [r7, #12]

  reg_value  =  SCB->AIRCR;                                                   /* read old register configuration    */
 8000894:	4b0c      	ldr	r3, [pc, #48]	; (80008c8 <__NVIC_SetPriorityGrouping+0x44>)
 8000896:	68db      	ldr	r3, [r3, #12]
 8000898:	60bb      	str	r3, [r7, #8]
  reg_value &= ~((uint32_t)(SCB_AIRCR_VECTKEY_Msk | SCB_AIRCR_PRIGROUP_Msk)); /* clear bits to change               */
 800089a:	68ba      	ldr	r2, [r7, #8]
 800089c:	f64f 03ff 	movw	r3, #63743	; 0xf8ff
 80008a0:	4013      	ands	r3, r2
 80008a2:	60bb      	str	r3, [r7, #8]
  reg_value  =  (reg_value                                   |
                ((uint32_t)0x5FAUL << SCB_AIRCR_VECTKEY_Pos) |
                (PriorityGroupTmp << SCB_AIRCR_PRIGROUP_Pos)  );              /* Insert write key and priority group */
 80008a4:	68fb      	ldr	r3, [r7, #12]
 80008a6:	021a      	lsls	r2, r3, #8
                ((uint32_t)0x5FAUL << SCB_AIRCR_VECTKEY_Pos) |
 80008a8:	68bb      	ldr	r3, [r7, #8]
 80008aa:	4313      	orrs	r3, r2
  reg_value  =  (reg_value                                   |
 80008ac:	f043 63bf 	orr.w	r3, r3, #100139008	; 0x5f80000
 80008b0:	f443 3300 	orr.w	r3, r3, #131072	; 0x20000
 80008b4:	60bb      	str	r3, [r7, #8]
  SCB->AIRCR =  reg_value;
 80008b6:	4a04      	ldr	r2, [pc, #16]	; (80008c8 <__NVIC_SetPriorityGrouping+0x44>)
 80008b8:	68bb      	ldr	r3, [r7, #8]
 80008ba:	60d3      	str	r3, [r2, #12]
}
 80008bc:	bf00      	nop
 80008be:	3714      	adds	r7, #20
 80008c0:	46bd      	mov	sp, r7
 80008c2:	f85d 7b04 	ldr.w	r7, [sp], #4
 80008c6:	4770      	bx	lr
 80008c8:	e000ed00 	.word	0xe000ed00

080008cc <__NVIC_GetPriorityGrouping>:
  \brief   Get Priority Grouping
  \details Reads the priority grouping field from the NVIC Interrupt Controller.
  \return                Priority grouping field (SCB->AIRCR [10:8] PRIGROUP field).
 */
__STATIC_INLINE uint32_t __NVIC_GetPriorityGrouping(void)
{
 80008cc:	b480      	push	{r7}
 80008ce:	af00      	add	r7, sp, #0
  return ((uint32_t)((SCB->AIRCR & SCB_AIRCR_PRIGROUP_Msk) >> SCB_AIRCR_PRIGROUP_Pos));
 80008d0:	4b04      	ldr	r3, [pc, #16]	; (80008e4 <__NVIC_GetPriorityGrouping+0x18>)
 80008d2:	68db      	ldr	r3, [r3, #12]
 80008d4:	0a1b      	lsrs	r3, r3, #8
 80008d6:	f003 0307 	and.w	r3, r3, #7
}
 80008da:	4618      	mov	r0, r3
 80008dc:	46bd      	mov	sp, r7
 80008de:	f85d 7b04 	ldr.w	r7, [sp], #4
 80008e2:	4770      	bx	lr
 80008e4:	e000ed00 	.word	0xe000ed00

080008e8 <__NVIC_EnableIRQ>:
  \details Enables a device specific interrupt in the NVIC interrupt controller.
  \param [in]      IRQn  Device specific interrupt number.
  \note    IRQn must not be negative.
 */
__STATIC_INLINE void __NVIC_EnableIRQ(IRQn_Type IRQn)
{
 80008e8:	b480      	push	{r7}
 80008ea:	b083      	sub	sp, #12
 80008ec:	af00      	add	r7, sp, #0
 80008ee:	4603      	mov	r3, r0
 80008f0:	71fb      	strb	r3, [r7, #7]
  if ((int32_t)(IRQn) >= 0)
 80008f2:	f997 3007 	ldrsb.w	r3, [r7, #7]
 80008f6:	2b00      	cmp	r3, #0
 80008f8:	db0b      	blt.n	8000912 <__NVIC_EnableIRQ+0x2a>
  {
    __COMPILER_BARRIER();
    NVIC->ISER[(((uint32_t)IRQn) >> 5UL)] = (uint32_t)(1UL << (((uint32_t)IRQn) & 0x1FUL));
 80008fa:	79fb      	ldrb	r3, [r7, #7]
 80008fc:	f003 021f 	and.w	r2, r3, #31
 8000900:	4907      	ldr	r1, [pc, #28]	; (8000920 <__NVIC_EnableIRQ+0x38>)
 8000902:	f997 3007 	ldrsb.w	r3, [r7, #7]
 8000906:	095b      	lsrs	r3, r3, #5
 8000908:	2001      	movs	r0, #1
 800090a:	fa00 f202 	lsl.w	r2, r0, r2
 800090e:	f841 2023 	str.w	r2, [r1, r3, lsl #2]
    __COMPILER_BARRIER();
  }
}
 8000912:	bf00      	nop
 8000914:	370c      	adds	r7, #12
 8000916:	46bd      	mov	sp, r7
 8000918:	f85d 7b04 	ldr.w	r7, [sp], #4
 800091c:	4770      	bx	lr
 800091e:	bf00      	nop
 8000920:	e000e100 	.word	0xe000e100

08000924 <__NVIC_DisableIRQ>:
  \details Disables a device specific interrupt in the NVIC interrupt controller.
  \param [in]      IRQn  Device specific interrupt number.
  \note    IRQn must not be negative.
 */
__STATIC_INLINE void __NVIC_DisableIRQ(IRQn_Type IRQn)
{
 8000924:	b480      	push	{r7}
 8000926:	b083      	sub	sp, #12
 8000928:	af00      	add	r7, sp, #0
 800092a:	4603      	mov	r3, r0
 800092c:	71fb      	strb	r3, [r7, #7]
  if ((int32_t)(IRQn) >= 0)
 800092e:	f997 3007 	ldrsb.w	r3, [r7, #7]
 8000932:	2b00      	cmp	r3, #0
 8000934:	db12      	blt.n	800095c <__NVIC_DisableIRQ+0x38>
  {
    NVIC->ICER[(((uint32_t)IRQn) >> 5UL)] = (uint32_t)(1UL << (((uint32_t)IRQn) & 0x1FUL));
 8000936:	79fb      	ldrb	r3, [r7, #7]
 8000938:	f003 021f 	and.w	r2, r3, #31
 800093c:	490a      	ldr	r1, [pc, #40]	; (8000968 <__NVIC_DisableIRQ+0x44>)
 800093e:	f997 3007 	ldrsb.w	r3, [r7, #7]
 8000942:	095b      	lsrs	r3, r3, #5
 8000944:	2001      	movs	r0, #1
 8000946:	fa00 f202 	lsl.w	r2, r0, r2
 800094a:	3320      	adds	r3, #32
 800094c:	f841 2023 	str.w	r2, [r1, r3, lsl #2]
  __ASM volatile ("dsb 0xF":::"memory");
 8000950:	f3bf 8f4f 	dsb	sy
}
 8000954:	bf00      	nop
  __ASM volatile ("isb 0xF":::"memory");
 8000956:	f3bf 8f6f 	isb	sy
}
 800095a:	bf00      	nop
    __DSB();
    __ISB();
  }
}
 800095c:	bf00      	nop
 800095e:	370c      	adds	r7, #12
 8000960:	46bd      	mov	sp, r7
 8000962:	f85d 7b04 	ldr.w	r7, [sp], #4
 8000966:	4770      	bx	lr
 8000968:	e000e100 	.word	0xe000e100

0800096c <__NVIC_SetPriority>:
  \param [in]      IRQn  Interrupt number.
  \param [in]  priority  Priority to set.
  \note    The priority cannot be set for every processor exception.
 */
__STATIC_INLINE void __NVIC_SetPriority(IRQn_Type IRQn, uint32_t priority)
{
 800096c:	b480      	push	{r7}
 800096e:	b083      	sub	sp, #12
 8000970:	af00      	add	r7, sp, #0
 8000972:	4603      	mov	r3, r0
 8000974:	6039      	str	r1, [r7, #0]
 8000976:	71fb      	strb	r3, [r7, #7]
  if ((int32_t)(IRQn) >= 0)
 8000978:	f997 3007 	ldrsb.w	r3, [r7, #7]
 800097c:	2b00      	cmp	r3, #0
 800097e:	db0a      	blt.n	8000996 <__NVIC_SetPriority+0x2a>
  {
    NVIC->IP[((uint32_t)IRQn)]               = (uint8_t)((priority << (8U - __NVIC_PRIO_BITS)) & (uint32_t)0xFFUL);
 8000980:	683b      	ldr	r3, [r7, #0]
 8000982:	b2da      	uxtb	r2, r3
 8000984:	490c      	ldr	r1, [pc, #48]	; (80009b8 <__NVIC_SetPriority+0x4c>)
 8000986:	f997 3007 	ldrsb.w	r3, [r7, #7]
 800098a:	0112      	lsls	r2, r2, #4
 800098c:	b2d2      	uxtb	r2, r2
 800098e:	440b      	add	r3, r1
 8000990:	f883 2300 	strb.w	r2, [r3, #768]	; 0x300
  }
  else
  {
    SCB->SHP[(((uint32_t)IRQn) & 0xFUL)-4UL] = (uint8_t)((priority << (8U - __NVIC_PRIO_BITS)) & (uint32_t)0xFFUL);
  }
}
 8000994:	e00a      	b.n	80009ac <__NVIC_SetPriority+0x40>
    SCB->SHP[(((uint32_t)IRQn) & 0xFUL)-4UL] = (uint8_t)((priority << (8U - __NVIC_PRIO_BITS)) & (uint32_t)0xFFUL);
 8000996:	683b      	ldr	r3, [r7, #0]
 8000998:	b2da      	uxtb	r2, r3
 800099a:	4908      	ldr	r1, [pc, #32]	; (80009bc <__NVIC_SetPriority+0x50>)
 800099c:	79fb      	ldrb	r3, [r7, #7]
 800099e:	f003 030f 	and.w	r3, r3, #15
 80009a2:	3b04      	subs	r3, #4
 80009a4:	0112      	lsls	r2, r2, #4
 80009a6:	b2d2      	uxtb	r2, r2
 80009a8:	440b      	add	r3, r1
 80009aa:	761a      	strb	r2, [r3, #24]
}
 80009ac:	bf00      	nop
 80009ae:	370c      	adds	r7, #12
 80009b0:	46bd      	mov	sp, r7
 80009b2:	f85d 7b04 	ldr.w	r7, [sp], #4
 80009b6:	4770      	bx	lr
 80009b8:	e000e100 	.word	0xe000e100
 80009bc:	e000ed00 	.word	0xe000ed00

080009c0 <NVIC_EncodePriority>:
  \param [in]   PreemptPriority  Preemptive priority value (starting from 0).
  \param [in]       SubPriority  Subpriority value (starting from 0).
  \return                        Encoded priority. Value can be used in the function \ref NVIC_SetPriority().
 */
__STATIC_INLINE uint32_t NVIC_EncodePriority (uint32_t PriorityGroup, uint32_t PreemptPriority, uint32_t SubPriority)
{
 80009c0:	b480      	push	{r7}
 80009c2:	b089      	sub	sp, #36	; 0x24
 80009c4:	af00      	add	r7, sp, #0
 80009c6:	60f8      	str	r0, [r7, #12]
 80009c8:	60b9      	str	r1, [r7, #8]
 80009ca:	607a      	str	r2, [r7, #4]
  uint32_t PriorityGroupTmp = (PriorityGroup & (uint32_t)0x07UL);   /* only values 0..7 are used          */
 80009cc:	68fb      	ldr	r3, [r7, #12]
 80009ce:	f003 0307 	and.w	r3, r3, #7
 80009d2:	61fb      	str	r3, [r7, #28]
  uint32_t PreemptPriorityBits;
  uint32_t SubPriorityBits;

  PreemptPriorityBits = ((7UL - PriorityGroupTmp) > (uint32_t)(__NVIC_PRIO_BITS)) ? (uint32_t)(__NVIC_PRIO_BITS) : (uint32_t)(7UL - PriorityGroupTmp);
 80009d4:	69fb      	ldr	r3, [r7, #28]
 80009d6:	f1c3 0307 	rsb	r3, r3, #7
 80009da:	2b04      	cmp	r3, #4
 80009dc:	bf28      	it	cs
 80009de:	2304      	movcs	r3, #4
 80009e0:	61bb      	str	r3, [r7, #24]
  SubPriorityBits     = ((PriorityGroupTmp + (uint32_t)(__NVIC_PRIO_BITS)) < (uint32_t)7UL) ? (uint32_t)0UL : (uint32_t)((PriorityGroupTmp - 7UL) + (uint32_t)(__NVIC_PRIO_BITS));
 80009e2:	69fb      	ldr	r3, [r7, #28]
 80009e4:	3304      	adds	r3, #4
 80009e6:	2b06      	cmp	r3, #6
 80009e8:	d902      	bls.n	80009f0 <NVIC_EncodePriority+0x30>
 80009ea:	69fb      	ldr	r3, [r7, #28]
 80009ec:	3b03      	subs	r3, #3
 80009ee:	e000      	b.n	80009f2 <NVIC_EncodePriority+0x32>
 80009f0:	2300      	movs	r3, #0
 80009f2:	617b      	str	r3, [r7, #20]

  return (
           ((PreemptPriority & (uint32_t)((1UL << (PreemptPriorityBits)) - 1UL)) << SubPriorityBits) |
 80009f4:	f04f 32ff 	mov.w	r2, #4294967295
 80009f8:	69bb      	ldr	r3, [r7, #24]
 80009fa:	fa02 f303 	lsl.w	r3, r2, r3
 80009fe:	43da      	mvns	r2, r3
 8000a00:	68bb      	ldr	r3, [r7, #8]
 8000a02:	401a      	ands	r2, r3
 8000a04:	697b      	ldr	r3, [r7, #20]
 8000a06:	409a      	lsls	r2, r3
           ((SubPriority     & (uint32_t)((1UL << (SubPriorityBits    )) - 1UL)))
 8000a08:	f04f 31ff 	mov.w	r1, #4294967295
 8000a0c:	697b      	ldr	r3, [r7, #20]
 8000a0e:	fa01 f303 	lsl.w	r3, r1, r3
 8000a12:	43d9      	mvns	r1, r3
 8000a14:	687b      	ldr	r3, [r7, #4]
 8000a16:	400b      	ands	r3, r1
           ((PreemptPriority & (uint32_t)((1UL << (PreemptPriorityBits)) - 1UL)) << SubPriorityBits) |
 8000a18:	4313      	orrs	r3, r2
         );
}
 8000a1a:	4618      	mov	r0, r3
 8000a1c:	3724      	adds	r7, #36	; 0x24
 8000a1e:	46bd      	mov	sp, r7
 8000a20:	f85d 7b04 	ldr.w	r7, [sp], #4
 8000a24:	4770      	bx	lr
	...

08000a28 <SysTick_Config>:
  \note    When the variable <b>__Vendor_SysTickConfig</b> is set to 1, then the
           function <b>SysTick_Config</b> is not included. In this case, the file <b><i>device</i>.h</b>
           must contain a vendor-specific implementation of this function.
 */
__STATIC_INLINE uint32_t SysTick_Config(uint32_t ticks)
{
 8000a28:	b580      	push	{r7, lr}
 8000a2a:	b082      	sub	sp, #8
 8000a2c:	af00      	add	r7, sp, #0
 8000a2e:	6078      	str	r0, [r7, #4]
  if ((ticks - 1UL) > SysTick_LOAD_RELOAD_Msk)
 8000a30:	687b      	ldr	r3, [r7, #4]
 8000a32:	3b01      	subs	r3, #1
 8000a34:	f1b3 7f80 	cmp.w	r3, #16777216	; 0x1000000
 8000a38:	d301      	bcc.n	8000a3e <SysTick_Config+0x16>
  {
    return (1UL);                                                   /* Reload value impossible */
 8000a3a:	2301      	movs	r3, #1
 8000a3c:	e00f      	b.n	8000a5e <SysTick_Config+0x36>
  }

  SysTick->LOAD  = (uint32_t)(ticks - 1UL);                         /* set reload register */
 8000a3e:	4a0a      	ldr	r2, [pc, #40]	; (8000a68 <SysTick_Config+0x40>)
 8000a40:	687b      	ldr	r3, [r7, #4]
 8000a42:	3b01      	subs	r3, #1
 8000a44:	6053      	str	r3, [r2, #4]
  NVIC_SetPriority (SysTick_IRQn, (1UL << __NVIC_PRIO_BITS) - 1UL); /* set Priority for Systick Interrupt */
 8000a46:	210f      	movs	r1, #15
 8000a48:	f04f 30ff 	mov.w	r0, #4294967295
 8000a4c:	f7ff ff8e 	bl	800096c <__NVIC_SetPriority>
  SysTick->VAL   = 0UL;                                             /* Load the SysTick Counter Value */
 8000a50:	4b05      	ldr	r3, [pc, #20]	; (8000a68 <SysTick_Config+0x40>)
 8000a52:	2200      	movs	r2, #0
 8000a54:	609a      	str	r2, [r3, #8]
  SysTick->CTRL  = SysTick_CTRL_CLKSOURCE_Msk |
 8000a56:	4b04      	ldr	r3, [pc, #16]	; (8000a68 <SysTick_Config+0x40>)
 8000a58:	2207      	movs	r2, #7
 8000a5a:	601a      	str	r2, [r3, #0]
                   SysTick_CTRL_TICKINT_Msk   |
                   SysTick_CTRL_ENABLE_Msk;                         /* Enable SysTick IRQ and SysTick Timer */
  return (0UL);                                                     /* Function successful */
 8000a5c:	2300      	movs	r3, #0
}
 8000a5e:	4618      	mov	r0, r3
 8000a60:	3708      	adds	r7, #8
 8000a62:	46bd      	mov	sp, r7
 8000a64:	bd80      	pop	{r7, pc}
 8000a66:	bf00      	nop
 8000a68:	e000e010 	.word	0xe000e010

08000a6c <HAL_NVIC_SetPriorityGrouping>:
  * @note   When the NVIC_PriorityGroup_0 is selected, IRQ pre-emption is no more possible.
  *         The pending IRQ priority will be managed only by the subpriority.
  * @retval None
  */
void HAL_NVIC_SetPriorityGrouping(uint32_t PriorityGroup)
{
 8000a6c:	b580      	push	{r7, lr}
 8000a6e:	b082      	sub	sp, #8
 8000a70:	af00      	add	r7, sp, #0
 8000a72:	6078      	str	r0, [r7, #4]
  /* Check the parameters */
  assert_param(IS_NVIC_PRIORITY_GROUP(PriorityGroup));

  /* Set the PRIGROUP[10:8] bits according to the PriorityGroup parameter value */
  NVIC_SetPriorityGrouping(PriorityGroup);
 8000a74:	6878      	ldr	r0, [r7, #4]
 8000a76:	f7ff ff05 	bl	8000884 <__NVIC_SetPriorityGrouping>
}
 8000a7a:	bf00      	nop
 8000a7c:	3708      	adds	r7, #8
 8000a7e:	46bd      	mov	sp, r7
 8000a80:	bd80      	pop	{r7, pc}

08000a82 <HAL_NVIC_SetPriority>:
  *         This parameter can be a value between 0 and 15
  *         A lower priority value indicates a higher priority.
  * @retval None
  */
void HAL_NVIC_SetPriority(IRQn_Type IRQn, uint32_t PreemptPriority, uint32_t SubPriority)
{
 8000a82:	b580      	push	{r7, lr}
 8000a84:	b086      	sub	sp, #24
 8000a86:	af00      	add	r7, sp, #0
 8000a88:	4603      	mov	r3, r0
 8000a8a:	60b9      	str	r1, [r7, #8]
 8000a8c:	607a      	str	r2, [r7, #4]
 8000a8e:	73fb      	strb	r3, [r7, #15]
  uint32_t prioritygroup = 0x00;
 8000a90:	2300      	movs	r3, #0
 8000a92:	617b      	str	r3, [r7, #20]

  /* Check the parameters */
  assert_param(IS_NVIC_SUB_PRIORITY(SubPriority));
  assert_param(IS_NVIC_PREEMPTION_PRIORITY(PreemptPriority));

  prioritygroup = NVIC_GetPriorityGrouping();
 8000a94:	f7ff ff1a 	bl	80008cc <__NVIC_GetPriorityGrouping>
 8000a98:	6178      	str	r0, [r7, #20]

  NVIC_SetPriority(IRQn, NVIC_EncodePriority(prioritygroup, PreemptPriority, SubPriority));
 8000a9a:	687a      	ldr	r2, [r7, #4]
 8000a9c:	68b9      	ldr	r1, [r7, #8]
 8000a9e:	6978      	ldr	r0, [r7, #20]
 8000aa0:	f7ff ff8e 	bl	80009c0 <NVIC_EncodePriority>
 8000aa4:	4602      	mov	r2, r0
 8000aa6:	f997 300f 	ldrsb.w	r3, [r7, #15]
 8000aaa:	4611      	mov	r1, r2
 8000aac:	4618      	mov	r0, r3
 8000aae:	f7ff ff5d 	bl	800096c <__NVIC_SetPriority>
}
 8000ab2:	bf00      	nop
 8000ab4:	3718      	adds	r7, #24
 8000ab6:	46bd      	mov	sp, r7
 8000ab8:	bd80      	pop	{r7, pc}

08000aba <HAL_NVIC_EnableIRQ>:
  *         This parameter can be an enumerator of IRQn_Type enumeration
  *         (For the complete STM32 Devices IRQ Channels list, please refer to the appropriate CMSIS device file (stm32l4xxxx.h))
  * @retval None
  */
void HAL_NVIC_EnableIRQ(IRQn_Type IRQn)
{
 8000aba:	b580      	push	{r7, lr}
 8000abc:	b082      	sub	sp, #8
 8000abe:	af00      	add	r7, sp, #0
 8000ac0:	4603      	mov	r3, r0
 8000ac2:	71fb      	strb	r3, [r7, #7]
  /* Check the parameters */
  assert_param(IS_NVIC_DEVICE_IRQ(IRQn));
  
  /* Enable interrupt */
  NVIC_EnableIRQ(IRQn);
 8000ac4:	f997 3007 	ldrsb.w	r3, [r7, #7]
 8000ac8:	4618      	mov	r0, r3
 8000aca:	f7ff ff0d 	bl	80008e8 <__NVIC_EnableIRQ>
}
 8000ace:	bf00      	nop
 8000ad0:	3708      	adds	r7, #8
 8000ad2:	46bd      	mov	sp, r7
 8000ad4:	bd80      	pop	{r7, pc}

08000ad6 <HAL_NVIC_DisableIRQ>:
  *         This parameter can be an enumerator of IRQn_Type enumeration
  *         (For the complete STM32 Devices IRQ Channels list, please refer to the appropriate CMSIS device file (stm32l4xxxx.h))
  * @retval None
  */
void HAL_NVIC_DisableIRQ(IRQn_Type IRQn)
{
 8000ad6:	b580      	push	{r7, lr}
 8000ad8:	b082      	sub	sp, #8
 8000ada:	af00      	add	r7, sp, #0
 8000adc:	4603      	mov	r3, r0
 8000ade:	71fb      	strb	r3, [r7, #7]
  /* Check the parameters */
  assert_param(IS_NVIC_DEVICE_IRQ(IRQn));
  
  /* Disable interrupt */
  NVIC_DisableIRQ(IRQn);
 8000ae0:	f997 3007 	ldrsb.w	r3, [r7, #7]
 8000ae4:	4618      	mov	r0, r3
 8000ae6:	f7ff ff1d 	bl	8000924 <__NVIC_DisableIRQ>
}
 8000aea:	bf00      	nop
 8000aec:	3708      	adds	r7, #8
 8000aee:	46bd      	mov	sp, r7
 8000af0:	bd80      	pop	{r7, pc}

08000af2 <HAL_SYSTICK_Config>:
  * @param  TicksNumb: Specifies the ticks Number of ticks between two interrupts.
  * @retval status:  - 0  Function succeeded.
  *                  - 1  Function failed.
  */
uint32_t HAL_SYSTICK_Config(uint32_t TicksNumb)
{
 8000af2:	b580      	push	{r7, lr}
 8000af4:	b082      	sub	sp, #8
 8000af6:	af00      	add	r7, sp, #0
 8000af8:	6078      	str	r0, [r7, #4]
   return SysTick_Config(TicksNumb);
 8000afa:	6878      	ldr	r0, [r7, #4]
 8000afc:	f7ff ff94 	bl	8000a28 <SysTick_Config>
 8000b00:	4603      	mov	r3, r0
}
 8000b02:	4618      	mov	r0, r3
 8000b04:	3708      	adds	r7, #8
 8000b06:	46bd      	mov	sp, r7
 8000b08:	bd80      	pop	{r7, pc}
	...

08000b0c <HAL_GPIO_Init>:
  * @param  GPIO_Init pointer to a GPIO_InitTypeDef structure that contains
  *         the configuration information for the specified GPIO peripheral.
  * @retval None
  */
void HAL_GPIO_Init(GPIO_TypeDef  *GPIOx, GPIO_InitTypeDef *GPIO_Init)
{
 8000b0c:	b480      	push	{r7}
 8000b0e:	b087      	sub	sp, #28
 8000b10:	af00      	add	r7, sp, #0
 8000b12:	6078      	str	r0, [r7, #4]
 8000b14:	6039      	str	r1, [r7, #0]
  uint32_t position = 0x00u;
 8000b16:	2300      	movs	r3, #0
 8000b18:	617b      	str	r3, [r7, #20]
  assert_param(IS_GPIO_PIN(GPIO_Init->Pin));
  assert_param(IS_GPIO_MODE(GPIO_Init->Mode));
  assert_param(IS_GPIO_PULL(GPIO_Init->Pull));

  /* Configure the port pins */
  while (((GPIO_Init->Pin) >> position) != 0x00u)
 8000b1a:	e148      	b.n	8000dae <HAL_GPIO_Init+0x2a2>
  {
    /* Get current io position */
    iocurrent = (GPIO_Init->Pin) & (1uL << position);
 8000b1c:	683b      	ldr	r3, [r7, #0]
 8000b1e:	681a      	ldr	r2, [r3, #0]
 8000b20:	2101      	movs	r1, #1
 8000b22:	697b      	ldr	r3, [r7, #20]
 8000b24:	fa01 f303 	lsl.w	r3, r1, r3
 8000b28:	4013      	ands	r3, r2
 8000b2a:	60fb      	str	r3, [r7, #12]

    if (iocurrent != 0x00u)
 8000b2c:	68fb      	ldr	r3, [r7, #12]
 8000b2e:	2b00      	cmp	r3, #0
 8000b30:	f000 813a 	beq.w	8000da8 <HAL_GPIO_Init+0x29c>
    {
      /*--------------------- GPIO Mode Configuration ------------------------*/
      /* In case of Output or Alternate function mode selection */
      if((GPIO_Init->Mode == GPIO_MODE_OUTPUT_PP) || (GPIO_Init->Mode == GPIO_MODE_AF_PP) ||
 8000b34:	683b      	ldr	r3, [r7, #0]
 8000b36:	685b      	ldr	r3, [r3, #4]
 8000b38:	2b01      	cmp	r3, #1
 8000b3a:	d00b      	beq.n	8000b54 <HAL_GPIO_Init+0x48>
 8000b3c:	683b      	ldr	r3, [r7, #0]
 8000b3e:	685b      	ldr	r3, [r3, #4]
 8000b40:	2b02      	cmp	r3, #2
 8000b42:	d007      	beq.n	8000b54 <HAL_GPIO_Init+0x48>
         (GPIO_Init->Mode == GPIO_MODE_OUTPUT_OD) || (GPIO_Init->Mode == GPIO_MODE_AF_OD))
 8000b44:	683b      	ldr	r3, [r7, #0]
 8000b46:	685b      	ldr	r3, [r3, #4]
      if((GPIO_Init->Mode == GPIO_MODE_OUTPUT_PP) || (GPIO_Init->Mode == GPIO_MODE_AF_PP) ||
 8000b48:	2b11      	cmp	r3, #17
 8000b4a:	d003      	beq.n	8000b54 <HAL_GPIO_Init+0x48>
         (GPIO_Init->Mode == GPIO_MODE_OUTPUT_OD) || (GPIO_Init->Mode == GPIO_MODE_AF_OD))
 8000b4c:	683b      	ldr	r3, [r7, #0]
 8000b4e:	685b      	ldr	r3, [r3, #4]
 8000b50:	2b12      	cmp	r3, #18
 8000b52:	d130      	bne.n	8000bb6 <HAL_GPIO_Init+0xaa>
      {
        /* Check the Speed parameter */
        assert_param(IS_GPIO_SPEED(GPIO_Init->Speed));
        /* Configure the IO Speed */
        temp = GPIOx->OSPEEDR;
 8000b54:	687b      	ldr	r3, [r7, #4]
 8000b56:	689b      	ldr	r3, [r3, #8]
 8000b58:	613b      	str	r3, [r7, #16]
        temp &= ~(GPIO_OSPEEDR_OSPEED0 << (position * 2u));
 8000b5a:	697b      	ldr	r3, [r7, #20]
 8000b5c:	005b      	lsls	r3, r3, #1
 8000b5e:	2203      	movs	r2, #3
 8000b60:	fa02 f303 	lsl.w	r3, r2, r3
 8000b64:	43db      	mvns	r3, r3
 8000b66:	693a      	ldr	r2, [r7, #16]
 8000b68:	4013      	ands	r3, r2
 8000b6a:	613b      	str	r3, [r7, #16]
        temp |= (GPIO_Init->Speed << (position * 2u));
 8000b6c:	683b      	ldr	r3, [r7, #0]
 8000b6e:	68da      	ldr	r2, [r3, #12]
 8000b70:	697b      	ldr	r3, [r7, #20]
 8000b72:	005b      	lsls	r3, r3, #1
 8000b74:	fa02 f303 	lsl.w	r3, r2, r3
 8000b78:	693a      	ldr	r2, [r7, #16]
 8000b7a:	4313      	orrs	r3, r2
 8000b7c:	613b      	str	r3, [r7, #16]
        GPIOx->OSPEEDR = temp;
 8000b7e:	687b      	ldr	r3, [r7, #4]
 8000b80:	693a      	ldr	r2, [r7, #16]
 8000b82:	609a      	str	r2, [r3, #8]

        /* Configure the IO Output Type */
        temp = GPIOx->OTYPER;
 8000b84:	687b      	ldr	r3, [r7, #4]
 8000b86:	685b      	ldr	r3, [r3, #4]
 8000b88:	613b      	str	r3, [r7, #16]
        temp &= ~(GPIO_OTYPER_OT0 << position) ;
 8000b8a:	2201      	movs	r2, #1
 8000b8c:	697b      	ldr	r3, [r7, #20]
 8000b8e:	fa02 f303 	lsl.w	r3, r2, r3
 8000b92:	43db      	mvns	r3, r3
 8000b94:	693a      	ldr	r2, [r7, #16]
 8000b96:	4013      	ands	r3, r2
 8000b98:	613b      	str	r3, [r7, #16]
        temp |= (((GPIO_Init->Mode & GPIO_OUTPUT_TYPE) >> 4u) << position);
 8000b9a:	683b      	ldr	r3, [r7, #0]
 8000b9c:	685b      	ldr	r3, [r3, #4]
 8000b9e:	091b      	lsrs	r3, r3, #4
 8000ba0:	f003 0201 	and.w	r2, r3, #1
 8000ba4:	697b      	ldr	r3, [r7, #20]
 8000ba6:	fa02 f303 	lsl.w	r3, r2, r3
 8000baa:	693a      	ldr	r2, [r7, #16]
 8000bac:	4313      	orrs	r3, r2
 8000bae:	613b      	str	r3, [r7, #16]
        GPIOx->OTYPER = temp;
 8000bb0:	687b      	ldr	r3, [r7, #4]
 8000bb2:	693a      	ldr	r2, [r7, #16]
 8000bb4:	605a      	str	r2, [r3, #4]
      }

#endif /* STM32L471xx || STM32L475xx || STM32L476xx || STM32L485xx || STM32L486xx */

      /* Activate the Pull-up or Pull down resistor for the current IO */
      temp = GPIOx->PUPDR;
 8000bb6:	687b      	ldr	r3, [r7, #4]
 8000bb8:	68db      	ldr	r3, [r3, #12]
 8000bba:	613b      	str	r3, [r7, #16]
      temp &= ~(GPIO_PUPDR_PUPD0 << (position * 2u));
 8000bbc:	697b      	ldr	r3, [r7, #20]
 8000bbe:	005b      	lsls	r3, r3, #1
 8000bc0:	2203      	movs	r2, #3
 8000bc2:	fa02 f303 	lsl.w	r3, r2, r3
 8000bc6:	43db      	mvns	r3, r3
 8000bc8:	693a      	ldr	r2, [r7, #16]
 8000bca:	4013      	ands	r3, r2
 8000bcc:	613b      	str	r3, [r7, #16]
      temp |= ((GPIO_Init->Pull) << (position * 2u));
 8000bce:	683b      	ldr	r3, [r7, #0]
 8000bd0:	689a      	ldr	r2, [r3, #8]
 8000bd2:	697b      	ldr	r3, [r7, #20]
 8000bd4:	005b      	lsls	r3, r3, #1
 8000bd6:	fa02 f303 	lsl.w	r3, r2, r3
 8000bda:	693a      	ldr	r2, [r7, #16]
 8000bdc:	4313      	orrs	r3, r2
 8000bde:	613b      	str	r3, [r7, #16]
      GPIOx->PUPDR = temp;
 8000be0:	687b      	ldr	r3, [r7, #4]
 8000be2:	693a      	ldr	r2, [r7, #16]
 8000be4:	60da      	str	r2, [r3, #12]

      /* In case of Alternate function mode selection */
      if((GPIO_Init->Mode == GPIO_MODE_AF_PP) || (GPIO_Init->Mode == GPIO_MODE_AF_OD))
 8000be6:	683b      	ldr	r3, [r7, #0]
 8000be8:	685b      	ldr	r3, [r3, #4]
 8000bea:	2b02      	cmp	r3, #2
 8000bec:	d003      	beq.n	8000bf6 <HAL_GPIO_Init+0xea>
 8000bee:	683b      	ldr	r3, [r7, #0]
 8000bf0:	685b      	ldr	r3, [r3, #4]
 8000bf2:	2b12      	cmp	r3, #18
 8000bf4:	d123      	bne.n	8000c3e <HAL_GPIO_Init+0x132>
        /* Check the Alternate function parameters */
        assert_param(IS_GPIO_AF_INSTANCE(GPIOx));
        assert_param(IS_GPIO_AF(GPIO_Init->Alternate));

        /* Configure Alternate function mapped with the current IO */
        temp = GPIOx->AFR[position >> 3u];
 8000bf6:	697b      	ldr	r3, [r7, #20]
 8000bf8:	08da      	lsrs	r2, r3, #3
 8000bfa:	687b      	ldr	r3, [r7, #4]
 8000bfc:	3208      	adds	r2, #8
 8000bfe:	f853 3022 	ldr.w	r3, [r3, r2, lsl #2]
 8000c02:	613b      	str	r3, [r7, #16]
        temp &= ~(0xFu << ((position & 0x07u) * 4u));
 8000c04:	697b      	ldr	r3, [r7, #20]
 8000c06:	f003 0307 	and.w	r3, r3, #7
 8000c0a:	009b      	lsls	r3, r3, #2
 8000c0c:	220f      	movs	r2, #15
 8000c0e:	fa02 f303 	lsl.w	r3, r2, r3
 8000c12:	43db      	mvns	r3, r3
 8000c14:	693a      	ldr	r2, [r7, #16]
 8000c16:	4013      	ands	r3, r2
 8000c18:	613b      	str	r3, [r7, #16]
        temp |= ((GPIO_Init->Alternate) << ((position & 0x07u) * 4u));
 8000c1a:	683b      	ldr	r3, [r7, #0]
 8000c1c:	691a      	ldr	r2, [r3, #16]
 8000c1e:	697b      	ldr	r3, [r7, #20]
 8000c20:	f003 0307 	and.w	r3, r3, #7
 8000c24:	009b      	lsls	r3, r3, #2
 8000c26:	fa02 f303 	lsl.w	r3, r2, r3
 8000c2a:	693a      	ldr	r2, [r7, #16]
 8000c2c:	4313      	orrs	r3, r2
 8000c2e:	613b      	str	r3, [r7, #16]
        GPIOx->AFR[position >> 3u] = temp;
 8000c30:	697b      	ldr	r3, [r7, #20]
 8000c32:	08da      	lsrs	r2, r3, #3
 8000c34:	687b      	ldr	r3, [r7, #4]
 8000c36:	3208      	adds	r2, #8
 8000c38:	6939      	ldr	r1, [r7, #16]
 8000c3a:	f843 1022 	str.w	r1, [r3, r2, lsl #2]
      }

      /* Configure IO Direction mode (Input, Output, Alternate or Analog) */
      temp = GPIOx->MODER;
 8000c3e:	687b      	ldr	r3, [r7, #4]
 8000c40:	681b      	ldr	r3, [r3, #0]
 8000c42:	613b      	str	r3, [r7, #16]
      temp &= ~(GPIO_MODER_MODE0 << (position * 2u));
 8000c44:	697b      	ldr	r3, [r7, #20]
 8000c46:	005b      	lsls	r3, r3, #1
 8000c48:	2203      	movs	r2, #3
 8000c4a:	fa02 f303 	lsl.w	r3, r2, r3
 8000c4e:	43db      	mvns	r3, r3
 8000c50:	693a      	ldr	r2, [r7, #16]
 8000c52:	4013      	ands	r3, r2
 8000c54:	613b      	str	r3, [r7, #16]
      temp |= ((GPIO_Init->Mode & GPIO_MODE) << (position * 2u));
 8000c56:	683b      	ldr	r3, [r7, #0]
 8000c58:	685b      	ldr	r3, [r3, #4]
 8000c5a:	f003 0203 	and.w	r2, r3, #3
 8000c5e:	697b      	ldr	r3, [r7, #20]
 8000c60:	005b      	lsls	r3, r3, #1
 8000c62:	fa02 f303 	lsl.w	r3, r2, r3
 8000c66:	693a      	ldr	r2, [r7, #16]
 8000c68:	4313      	orrs	r3, r2
 8000c6a:	613b      	str	r3, [r7, #16]
      GPIOx->MODER = temp;
 8000c6c:	687b      	ldr	r3, [r7, #4]
 8000c6e:	693a      	ldr	r2, [r7, #16]
 8000c70:	601a      	str	r2, [r3, #0]

      /*--------------------- EXTI Mode Configuration ------------------------*/
      /* Configure the External Interrupt or event for the current IO */
      if((GPIO_Init->Mode & EXTI_MODE) == EXTI_MODE)
 8000c72:	683b      	ldr	r3, [r7, #0]
 8000c74:	685b      	ldr	r3, [r3, #4]
 8000c76:	f003 5380 	and.w	r3, r3, #268435456	; 0x10000000
 8000c7a:	2b00      	cmp	r3, #0
 8000c7c:	f000 8094 	beq.w	8000da8 <HAL_GPIO_Init+0x29c>
      {
        /* Enable SYSCFG Clock */
        __HAL_RCC_SYSCFG_CLK_ENABLE();
 8000c80:	4b52      	ldr	r3, [pc, #328]	; (8000dcc <HAL_GPIO_Init+0x2c0>)
 8000c82:	6e1b      	ldr	r3, [r3, #96]	; 0x60
 8000c84:	4a51      	ldr	r2, [pc, #324]	; (8000dcc <HAL_GPIO_Init+0x2c0>)
 8000c86:	f043 0301 	orr.w	r3, r3, #1
 8000c8a:	6613      	str	r3, [r2, #96]	; 0x60
 8000c8c:	4b4f      	ldr	r3, [pc, #316]	; (8000dcc <HAL_GPIO_Init+0x2c0>)
 8000c8e:	6e1b      	ldr	r3, [r3, #96]	; 0x60
 8000c90:	f003 0301 	and.w	r3, r3, #1
 8000c94:	60bb      	str	r3, [r7, #8]
 8000c96:	68bb      	ldr	r3, [r7, #8]

        temp = SYSCFG->EXTICR[position >> 2u];
 8000c98:	4a4d      	ldr	r2, [pc, #308]	; (8000dd0 <HAL_GPIO_Init+0x2c4>)
 8000c9a:	697b      	ldr	r3, [r7, #20]
 8000c9c:	089b      	lsrs	r3, r3, #2
 8000c9e:	3302      	adds	r3, #2
 8000ca0:	f852 3023 	ldr.w	r3, [r2, r3, lsl #2]
 8000ca4:	613b      	str	r3, [r7, #16]
        temp &= ~(0x0FuL << (4u * (position & 0x03u)));
 8000ca6:	697b      	ldr	r3, [r7, #20]
 8000ca8:	f003 0303 	and.w	r3, r3, #3
 8000cac:	009b      	lsls	r3, r3, #2
 8000cae:	220f      	movs	r2, #15
 8000cb0:	fa02 f303 	lsl.w	r3, r2, r3
 8000cb4:	43db      	mvns	r3, r3
 8000cb6:	693a      	ldr	r2, [r7, #16]
 8000cb8:	4013      	ands	r3, r2
 8000cba:	613b      	str	r3, [r7, #16]
        temp |= (GPIO_GET_INDEX(GPIOx) << (4u * (position & 0x03u)));
 8000cbc:	687b      	ldr	r3, [r7, #4]
 8000cbe:	f1b3 4f90 	cmp.w	r3, #1207959552	; 0x48000000
 8000cc2:	d00d      	beq.n	8000ce0 <HAL_GPIO_Init+0x1d4>
 8000cc4:	687b      	ldr	r3, [r7, #4]
 8000cc6:	4a43      	ldr	r2, [pc, #268]	; (8000dd4 <HAL_GPIO_Init+0x2c8>)
 8000cc8:	4293      	cmp	r3, r2
 8000cca:	d007      	beq.n	8000cdc <HAL_GPIO_Init+0x1d0>
 8000ccc:	687b      	ldr	r3, [r7, #4]
 8000cce:	4a42      	ldr	r2, [pc, #264]	; (8000dd8 <HAL_GPIO_Init+0x2cc>)
 8000cd0:	4293      	cmp	r3, r2
 8000cd2:	d101      	bne.n	8000cd8 <HAL_GPIO_Init+0x1cc>
 8000cd4:	2302      	movs	r3, #2
 8000cd6:	e004      	b.n	8000ce2 <HAL_GPIO_Init+0x1d6>
 8000cd8:	2307      	movs	r3, #7
 8000cda:	e002      	b.n	8000ce2 <HAL_GPIO_Init+0x1d6>
 8000cdc:	2301      	movs	r3, #1
 8000cde:	e000      	b.n	8000ce2 <HAL_GPIO_Init+0x1d6>
 8000ce0:	2300      	movs	r3, #0
 8000ce2:	697a      	ldr	r2, [r7, #20]
 8000ce4:	f002 0203 	and.w	r2, r2, #3
 8000ce8:	0092      	lsls	r2, r2, #2
 8000cea:	4093      	lsls	r3, r2
 8000cec:	693a      	ldr	r2, [r7, #16]
 8000cee:	4313      	orrs	r3, r2
 8000cf0:	613b      	str	r3, [r7, #16]
        SYSCFG->EXTICR[position >> 2u] = temp;
 8000cf2:	4937      	ldr	r1, [pc, #220]	; (8000dd0 <HAL_GPIO_Init+0x2c4>)
 8000cf4:	697b      	ldr	r3, [r7, #20]
 8000cf6:	089b      	lsrs	r3, r3, #2
 8000cf8:	3302      	adds	r3, #2
 8000cfa:	693a      	ldr	r2, [r7, #16]
 8000cfc:	f841 2023 	str.w	r2, [r1, r3, lsl #2]

        /* Clear EXTI line configuration */
        temp = EXTI->IMR1;
 8000d00:	4b36      	ldr	r3, [pc, #216]	; (8000ddc <HAL_GPIO_Init+0x2d0>)
 8000d02:	681b      	ldr	r3, [r3, #0]
 8000d04:	613b      	str	r3, [r7, #16]
        temp &= ~(iocurrent);
 8000d06:	68fb      	ldr	r3, [r7, #12]
 8000d08:	43db      	mvns	r3, r3
 8000d0a:	693a      	ldr	r2, [r7, #16]
 8000d0c:	4013      	ands	r3, r2
 8000d0e:	613b      	str	r3, [r7, #16]
        if((GPIO_Init->Mode & GPIO_MODE_IT) == GPIO_MODE_IT)
 8000d10:	683b      	ldr	r3, [r7, #0]
 8000d12:	685b      	ldr	r3, [r3, #4]
 8000d14:	f403 3380 	and.w	r3, r3, #65536	; 0x10000
 8000d18:	2b00      	cmp	r3, #0
 8000d1a:	d003      	beq.n	8000d24 <HAL_GPIO_Init+0x218>
        {
          temp |= iocurrent;
 8000d1c:	693a      	ldr	r2, [r7, #16]
 8000d1e:	68fb      	ldr	r3, [r7, #12]
 8000d20:	4313      	orrs	r3, r2
 8000d22:	613b      	str	r3, [r7, #16]
        }
        EXTI->IMR1 = temp;
 8000d24:	4a2d      	ldr	r2, [pc, #180]	; (8000ddc <HAL_GPIO_Init+0x2d0>)
 8000d26:	693b      	ldr	r3, [r7, #16]
 8000d28:	6013      	str	r3, [r2, #0]

        temp = EXTI->EMR1;
 8000d2a:	4b2c      	ldr	r3, [pc, #176]	; (8000ddc <HAL_GPIO_Init+0x2d0>)
 8000d2c:	685b      	ldr	r3, [r3, #4]
 8000d2e:	613b      	str	r3, [r7, #16]
        temp &= ~(iocurrent);
 8000d30:	68fb      	ldr	r3, [r7, #12]
 8000d32:	43db      	mvns	r3, r3
 8000d34:	693a      	ldr	r2, [r7, #16]
 8000d36:	4013      	ands	r3, r2
 8000d38:	613b      	str	r3, [r7, #16]
        if((GPIO_Init->Mode & GPIO_MODE_EVT) == GPIO_MODE_EVT)
 8000d3a:	683b      	ldr	r3, [r7, #0]
 8000d3c:	685b      	ldr	r3, [r3, #4]
 8000d3e:	f403 3300 	and.w	r3, r3, #131072	; 0x20000
 8000d42:	2b00      	cmp	r3, #0
 8000d44:	d003      	beq.n	8000d4e <HAL_GPIO_Init+0x242>
        {
          temp |= iocurrent;
 8000d46:	693a      	ldr	r2, [r7, #16]
 8000d48:	68fb      	ldr	r3, [r7, #12]
 8000d4a:	4313      	orrs	r3, r2
 8000d4c:	613b      	str	r3, [r7, #16]
        }
        EXTI->EMR1 = temp;
 8000d4e:	4a23      	ldr	r2, [pc, #140]	; (8000ddc <HAL_GPIO_Init+0x2d0>)
 8000d50:	693b      	ldr	r3, [r7, #16]
 8000d52:	6053      	str	r3, [r2, #4]

        /* Clear Rising Falling edge configuration */
        temp = EXTI->RTSR1;
 8000d54:	4b21      	ldr	r3, [pc, #132]	; (8000ddc <HAL_GPIO_Init+0x2d0>)
 8000d56:	689b      	ldr	r3, [r3, #8]
 8000d58:	613b      	str	r3, [r7, #16]
        temp &= ~(iocurrent);
 8000d5a:	68fb      	ldr	r3, [r7, #12]
 8000d5c:	43db      	mvns	r3, r3
 8000d5e:	693a      	ldr	r2, [r7, #16]
 8000d60:	4013      	ands	r3, r2
 8000d62:	613b      	str	r3, [r7, #16]
        if((GPIO_Init->Mode & RISING_EDGE) == RISING_EDGE)
 8000d64:	683b      	ldr	r3, [r7, #0]
 8000d66:	685b      	ldr	r3, [r3, #4]
 8000d68:	f403 1380 	and.w	r3, r3, #1048576	; 0x100000
 8000d6c:	2b00      	cmp	r3, #0
 8000d6e:	d003      	beq.n	8000d78 <HAL_GPIO_Init+0x26c>
        {
          temp |= iocurrent;
 8000d70:	693a      	ldr	r2, [r7, #16]
 8000d72:	68fb      	ldr	r3, [r7, #12]
 8000d74:	4313      	orrs	r3, r2
 8000d76:	613b      	str	r3, [r7, #16]
        }
        EXTI->RTSR1 = temp;
 8000d78:	4a18      	ldr	r2, [pc, #96]	; (8000ddc <HAL_GPIO_Init+0x2d0>)
 8000d7a:	693b      	ldr	r3, [r7, #16]
 8000d7c:	6093      	str	r3, [r2, #8]

        temp = EXTI->FTSR1;
 8000d7e:	4b17      	ldr	r3, [pc, #92]	; (8000ddc <HAL_GPIO_Init+0x2d0>)
 8000d80:	68db      	ldr	r3, [r3, #12]
 8000d82:	613b      	str	r3, [r7, #16]
        temp &= ~(iocurrent);
 8000d84:	68fb      	ldr	r3, [r7, #12]
 8000d86:	43db      	mvns	r3, r3
 8000d88:	693a      	ldr	r2, [r7, #16]
 8000d8a:	4013      	ands	r3, r2
 8000d8c:	613b      	str	r3, [r7, #16]
        if((GPIO_Init->Mode & FALLING_EDGE) == FALLING_EDGE)
 8000d8e:	683b      	ldr	r3, [r7, #0]
 8000d90:	685b      	ldr	r3, [r3, #4]
 8000d92:	f403 1300 	and.w	r3, r3, #2097152	; 0x200000
 8000d96:	2b00      	cmp	r3, #0
 8000d98:	d003      	beq.n	8000da2 <HAL_GPIO_Init+0x296>
        {
          temp |= iocurrent;
 8000d9a:	693a      	ldr	r2, [r7, #16]
 8000d9c:	68fb      	ldr	r3, [r7, #12]
 8000d9e:	4313      	orrs	r3, r2
 8000da0:	613b      	str	r3, [r7, #16]
        }
        EXTI->FTSR1 = temp;
 8000da2:	4a0e      	ldr	r2, [pc, #56]	; (8000ddc <HAL_GPIO_Init+0x2d0>)
 8000da4:	693b      	ldr	r3, [r7, #16]
 8000da6:	60d3      	str	r3, [r2, #12]
      }
    }

    position++;
 8000da8:	697b      	ldr	r3, [r7, #20]
 8000daa:	3301      	adds	r3, #1
 8000dac:	617b      	str	r3, [r7, #20]
  while (((GPIO_Init->Pin) >> position) != 0x00u)
 8000dae:	683b      	ldr	r3, [r7, #0]
 8000db0:	681a      	ldr	r2, [r3, #0]
 8000db2:	697b      	ldr	r3, [r7, #20]
 8000db4:	fa22 f303 	lsr.w	r3, r2, r3
 8000db8:	2b00      	cmp	r3, #0
 8000dba:	f47f aeaf 	bne.w	8000b1c <HAL_GPIO_Init+0x10>
  }
}
 8000dbe:	bf00      	nop
 8000dc0:	bf00      	nop
 8000dc2:	371c      	adds	r7, #28
 8000dc4:	46bd      	mov	sp, r7
 8000dc6:	f85d 7b04 	ldr.w	r7, [sp], #4
 8000dca:	4770      	bx	lr
 8000dcc:	40021000 	.word	0x40021000
 8000dd0:	40010000 	.word	0x40010000
 8000dd4:	48000400 	.word	0x48000400
 8000dd8:	48000800 	.word	0x48000800
 8000ddc:	40010400 	.word	0x40010400

08000de0 <HAL_GPIO_WritePin>:
  *            @arg GPIO_PIN_RESET: to clear the port pin
  *            @arg GPIO_PIN_SET: to set the port pin
  * @retval None
  */
void HAL_GPIO_WritePin(GPIO_TypeDef* GPIOx, uint16_t GPIO_Pin, GPIO_PinState PinState)
{
 8000de0:	b480      	push	{r7}
 8000de2:	b083      	sub	sp, #12
 8000de4:	af00      	add	r7, sp, #0
 8000de6:	6078      	str	r0, [r7, #4]
 8000de8:	460b      	mov	r3, r1
 8000dea:	807b      	strh	r3, [r7, #2]
 8000dec:	4613      	mov	r3, r2
 8000dee:	707b      	strb	r3, [r7, #1]
  /* Check the parameters */
  assert_param(IS_GPIO_PIN(GPIO_Pin));
  assert_param(IS_GPIO_PIN_ACTION(PinState));

  if(PinState != GPIO_PIN_RESET)
 8000df0:	787b      	ldrb	r3, [r7, #1]
 8000df2:	2b00      	cmp	r3, #0
 8000df4:	d003      	beq.n	8000dfe <HAL_GPIO_WritePin+0x1e>
  {
    GPIOx->BSRR = (uint32_t)GPIO_Pin;
 8000df6:	887a      	ldrh	r2, [r7, #2]
 8000df8:	687b      	ldr	r3, [r7, #4]
 8000dfa:	619a      	str	r2, [r3, #24]
  }
  else
  {
    GPIOx->BRR = (uint32_t)GPIO_Pin;
  }
}
 8000dfc:	e002      	b.n	8000e04 <HAL_GPIO_WritePin+0x24>
    GPIOx->BRR = (uint32_t)GPIO_Pin;
 8000dfe:	887a      	ldrh	r2, [r7, #2]
 8000e00:	687b      	ldr	r3, [r7, #4]
 8000e02:	629a      	str	r2, [r3, #40]	; 0x28
}
 8000e04:	bf00      	nop
 8000e06:	370c      	adds	r7, #12
 8000e08:	46bd      	mov	sp, r7
 8000e0a:	f85d 7b04 	ldr.w	r7, [sp], #4
 8000e0e:	4770      	bx	lr

08000e10 <HAL_GPIO_TogglePin>:
  * @param  GPIOx where x can be (A..H) to select the GPIO peripheral for STM32L4 family
  * @param  GPIO_Pin specifies the pin to be toggled.
  * @retval None
  */
void HAL_GPIO_TogglePin(GPIO_TypeDef* GPIOx, uint16_t GPIO_Pin)
{
 8000e10:	b480      	push	{r7}
 8000e12:	b085      	sub	sp, #20
 8000e14:	af00      	add	r7, sp, #0
 8000e16:	6078      	str	r0, [r7, #4]
 8000e18:	460b      	mov	r3, r1
 8000e1a:	807b      	strh	r3, [r7, #2]

  /* Check the parameters */
  assert_param(IS_GPIO_PIN(GPIO_Pin));

  /* get current Ouput Data Register value */
  odr = GPIOx->ODR;
 8000e1c:	687b      	ldr	r3, [r7, #4]
 8000e1e:	695b      	ldr	r3, [r3, #20]
 8000e20:	60fb      	str	r3, [r7, #12]

  /* Set selected pins that were at low level, and reset ones that were high */
  GPIOx->BSRR = ((odr & GPIO_Pin) << GPIO_NUMBER) | (~odr & GPIO_Pin);
 8000e22:	887a      	ldrh	r2, [r7, #2]
 8000e24:	68fb      	ldr	r3, [r7, #12]
 8000e26:	4013      	ands	r3, r2
 8000e28:	041a      	lsls	r2, r3, #16
 8000e2a:	68fb      	ldr	r3, [r7, #12]
 8000e2c:	43d9      	mvns	r1, r3
 8000e2e:	887b      	ldrh	r3, [r7, #2]
 8000e30:	400b      	ands	r3, r1
 8000e32:	431a      	orrs	r2, r3
 8000e34:	687b      	ldr	r3, [r7, #4]
 8000e36:	619a      	str	r2, [r3, #24]
}
 8000e38:	bf00      	nop
 8000e3a:	3714      	adds	r7, #20
 8000e3c:	46bd      	mov	sp, r7
 8000e3e:	f85d 7b04 	ldr.w	r7, [sp], #4
 8000e42:	4770      	bx	lr

08000e44 <HAL_PWR_EnableBkUpAccess>:
  * @note  LSEON bit that switches on and off the LSE crystal belongs as well to the
  *        back-up domain.
  * @retval None
  */
void HAL_PWR_EnableBkUpAccess(void)
{
 8000e44:	b480      	push	{r7}
 8000e46:	af00      	add	r7, sp, #0
  SET_BIT(PWR->CR1, PWR_CR1_DBP);
 8000e48:	4b05      	ldr	r3, [pc, #20]	; (8000e60 <HAL_PWR_EnableBkUpAccess+0x1c>)
 8000e4a:	681b      	ldr	r3, [r3, #0]
 8000e4c:	4a04      	ldr	r2, [pc, #16]	; (8000e60 <HAL_PWR_EnableBkUpAccess+0x1c>)
 8000e4e:	f443 7380 	orr.w	r3, r3, #256	; 0x100
 8000e52:	6013      	str	r3, [r2, #0]
}
 8000e54:	bf00      	nop
 8000e56:	46bd      	mov	sp, r7
 8000e58:	f85d 7b04 	ldr.w	r7, [sp], #4
 8000e5c:	4770      	bx	lr
 8000e5e:	bf00      	nop
 8000e60:	40007000 	.word	0x40007000

08000e64 <HAL_PWREx_GetVoltageRange>:
  * @brief Return Voltage Scaling Range.
  * @retval VOS bit field (PWR_REGULATOR_VOLTAGE_SCALE1 or PWR_REGULATOR_VOLTAGE_SCALE2
  *         or PWR_REGULATOR_VOLTAGE_SCALE1_BOOST when applicable)
  */
uint32_t HAL_PWREx_GetVoltageRange(void)
{
 8000e64:	b480      	push	{r7}
 8000e66:	af00      	add	r7, sp, #0
    else
    {
      return PWR_REGULATOR_VOLTAGE_SCALE1_BOOST;
    }
#else
  return  (PWR->CR1 & PWR_CR1_VOS);
 8000e68:	4b04      	ldr	r3, [pc, #16]	; (8000e7c <HAL_PWREx_GetVoltageRange+0x18>)
 8000e6a:	681b      	ldr	r3, [r3, #0]
 8000e6c:	f403 63c0 	and.w	r3, r3, #1536	; 0x600
#endif
}
 8000e70:	4618      	mov	r0, r3
 8000e72:	46bd      	mov	sp, r7
 8000e74:	f85d 7b04 	ldr.w	r7, [sp], #4
 8000e78:	4770      	bx	lr
 8000e7a:	bf00      	nop
 8000e7c:	40007000 	.word	0x40007000

08000e80 <HAL_PWREx_ControlVoltageScaling>:
  *        cleared before returning the status. If the flag is not cleared within
  *        50 microseconds, HAL_TIMEOUT status is reported.
  * @retval HAL Status
  */
HAL_StatusTypeDef HAL_PWREx_ControlVoltageScaling(uint32_t VoltageScaling)
{
 8000e80:	b480      	push	{r7}
 8000e82:	b085      	sub	sp, #20
 8000e84:	af00      	add	r7, sp, #0
 8000e86:	6078      	str	r0, [r7, #4]
  }

#else

  /* If Set Range 1 */
  if (VoltageScaling == PWR_REGULATOR_VOLTAGE_SCALE1)
 8000e88:	687b      	ldr	r3, [r7, #4]
 8000e8a:	f5b3 7f00 	cmp.w	r3, #512	; 0x200
 8000e8e:	d132      	bne.n	8000ef6 <HAL_PWREx_ControlVoltageScaling+0x76>
  {
    if (READ_BIT(PWR->CR1, PWR_CR1_VOS) != PWR_REGULATOR_VOLTAGE_SCALE1)
 8000e90:	4b24      	ldr	r3, [pc, #144]	; (8000f24 <HAL_PWREx_ControlVoltageScaling+0xa4>)
 8000e92:	681b      	ldr	r3, [r3, #0]
 8000e94:	f403 63c0 	and.w	r3, r3, #1536	; 0x600
 8000e98:	f5b3 7f00 	cmp.w	r3, #512	; 0x200
 8000e9c:	d03a      	beq.n	8000f14 <HAL_PWREx_ControlVoltageScaling+0x94>
    {
      /* Set Range 1 */
      MODIFY_REG(PWR->CR1, PWR_CR1_VOS, PWR_REGULATOR_VOLTAGE_SCALE1);
 8000e9e:	4b21      	ldr	r3, [pc, #132]	; (8000f24 <HAL_PWREx_ControlVoltageScaling+0xa4>)
 8000ea0:	681b      	ldr	r3, [r3, #0]
 8000ea2:	f423 63c0 	bic.w	r3, r3, #1536	; 0x600
 8000ea6:	4a1f      	ldr	r2, [pc, #124]	; (8000f24 <HAL_PWREx_ControlVoltageScaling+0xa4>)
 8000ea8:	f443 7300 	orr.w	r3, r3, #512	; 0x200
 8000eac:	6013      	str	r3, [r2, #0]

      /* Wait until VOSF is cleared */
      wait_loop_index = ((PWR_FLAG_SETTING_DELAY_US * SystemCoreClock) / 1000000U) + 1U;
 8000eae:	4b1f      	ldr	r3, [pc, #124]	; (8000f2c <HAL_PWREx_ControlVoltageScaling+0xac>)
 8000eb0:	f859 3003 	ldr.w	r3, [r9, r3]
 8000eb4:	681b      	ldr	r3, [r3, #0]
 8000eb6:	2232      	movs	r2, #50	; 0x32
 8000eb8:	fb02 f303 	mul.w	r3, r2, r3
 8000ebc:	4a1a      	ldr	r2, [pc, #104]	; (8000f28 <HAL_PWREx_ControlVoltageScaling+0xa8>)
 8000ebe:	fba2 2303 	umull	r2, r3, r2, r3
 8000ec2:	0c9b      	lsrs	r3, r3, #18
 8000ec4:	3301      	adds	r3, #1
 8000ec6:	60fb      	str	r3, [r7, #12]
      while ((HAL_IS_BIT_SET(PWR->SR2, PWR_SR2_VOSF)) && (wait_loop_index != 0U))
 8000ec8:	e002      	b.n	8000ed0 <HAL_PWREx_ControlVoltageScaling+0x50>
      {
        wait_loop_index--;
 8000eca:	68fb      	ldr	r3, [r7, #12]
 8000ecc:	3b01      	subs	r3, #1
 8000ece:	60fb      	str	r3, [r7, #12]
      while ((HAL_IS_BIT_SET(PWR->SR2, PWR_SR2_VOSF)) && (wait_loop_index != 0U))
 8000ed0:	4b14      	ldr	r3, [pc, #80]	; (8000f24 <HAL_PWREx_ControlVoltageScaling+0xa4>)
 8000ed2:	695b      	ldr	r3, [r3, #20]
 8000ed4:	f403 6380 	and.w	r3, r3, #1024	; 0x400
 8000ed8:	f5b3 6f80 	cmp.w	r3, #1024	; 0x400
 8000edc:	d102      	bne.n	8000ee4 <HAL_PWREx_ControlVoltageScaling+0x64>
 8000ede:	68fb      	ldr	r3, [r7, #12]
 8000ee0:	2b00      	cmp	r3, #0
 8000ee2:	d1f2      	bne.n	8000eca <HAL_PWREx_ControlVoltageScaling+0x4a>
      }
      if (HAL_IS_BIT_SET(PWR->SR2, PWR_SR2_VOSF))
 8000ee4:	4b0f      	ldr	r3, [pc, #60]	; (8000f24 <HAL_PWREx_ControlVoltageScaling+0xa4>)
 8000ee6:	695b      	ldr	r3, [r3, #20]
 8000ee8:	f403 6380 	and.w	r3, r3, #1024	; 0x400
 8000eec:	f5b3 6f80 	cmp.w	r3, #1024	; 0x400
 8000ef0:	d110      	bne.n	8000f14 <HAL_PWREx_ControlVoltageScaling+0x94>
      {
        return HAL_TIMEOUT;
 8000ef2:	2303      	movs	r3, #3
 8000ef4:	e00f      	b.n	8000f16 <HAL_PWREx_ControlVoltageScaling+0x96>
      }
    }
  }
  else
  {
    if (READ_BIT(PWR->CR1, PWR_CR1_VOS) != PWR_REGULATOR_VOLTAGE_SCALE2)
 8000ef6:	4b0b      	ldr	r3, [pc, #44]	; (8000f24 <HAL_PWREx_ControlVoltageScaling+0xa4>)
 8000ef8:	681b      	ldr	r3, [r3, #0]
 8000efa:	f403 63c0 	and.w	r3, r3, #1536	; 0x600
 8000efe:	f5b3 6f80 	cmp.w	r3, #1024	; 0x400
 8000f02:	d007      	beq.n	8000f14 <HAL_PWREx_ControlVoltageScaling+0x94>
    {
      /* Set Range 2 */
      MODIFY_REG(PWR->CR1, PWR_CR1_VOS, PWR_REGULATOR_VOLTAGE_SCALE2);
 8000f04:	4b07      	ldr	r3, [pc, #28]	; (8000f24 <HAL_PWREx_ControlVoltageScaling+0xa4>)
 8000f06:	681b      	ldr	r3, [r3, #0]
 8000f08:	f423 63c0 	bic.w	r3, r3, #1536	; 0x600
 8000f0c:	4a05      	ldr	r2, [pc, #20]	; (8000f24 <HAL_PWREx_ControlVoltageScaling+0xa4>)
 8000f0e:	f443 6380 	orr.w	r3, r3, #1024	; 0x400
 8000f12:	6013      	str	r3, [r2, #0]
      /* No need to wait for VOSF to be cleared for this transition */
    }
  }
#endif

  return HAL_OK;
 8000f14:	2300      	movs	r3, #0
}
 8000f16:	4618      	mov	r0, r3
 8000f18:	3714      	adds	r7, #20
 8000f1a:	46bd      	mov	sp, r7
 8000f1c:	f85d 7b04 	ldr.w	r7, [sp], #4
 8000f20:	4770      	bx	lr
 8000f22:	bf00      	nop
 8000f24:	40007000 	.word	0x40007000
 8000f28:	431bde83 	.word	0x431bde83
 8000f2c:	00000004 	.word	0x00000004

08000f30 <HAL_RCC_OscConfig>:
  *         supported by this macro. User should request a transition to HSE Off
  *         first and then HSE On or HSE Bypass.
  * @retval HAL status
  */
HAL_StatusTypeDef HAL_RCC_OscConfig(RCC_OscInitTypeDef  *RCC_OscInitStruct)
{
 8000f30:	b580      	push	{r7, lr}
 8000f32:	b088      	sub	sp, #32
 8000f34:	af00      	add	r7, sp, #0
 8000f36:	6078      	str	r0, [r7, #4]
  uint32_t tickstart;
  HAL_StatusTypeDef status;
  uint32_t sysclk_source, pll_config;

  /* Check Null pointer */
  if(RCC_OscInitStruct == NULL)
 8000f38:	687b      	ldr	r3, [r7, #4]
 8000f3a:	2b00      	cmp	r3, #0
 8000f3c:	d102      	bne.n	8000f44 <HAL_RCC_OscConfig+0x14>
  {
    return HAL_ERROR;
 8000f3e:	2301      	movs	r3, #1
 8000f40:	f000 bc17 	b.w	8001772 <HAL_RCC_OscConfig+0x842>
  }

  /* Check the parameters */
  assert_param(IS_RCC_OSCILLATORTYPE(RCC_OscInitStruct->OscillatorType));

  sysclk_source = __HAL_RCC_GET_SYSCLK_SOURCE();
 8000f44:	4ba3      	ldr	r3, [pc, #652]	; (80011d4 <HAL_RCC_OscConfig+0x2a4>)
 8000f46:	689b      	ldr	r3, [r3, #8]
 8000f48:	f003 030c 	and.w	r3, r3, #12
 8000f4c:	61bb      	str	r3, [r7, #24]
  pll_config = __HAL_RCC_GET_PLL_OSCSOURCE();
 8000f4e:	4ba1      	ldr	r3, [pc, #644]	; (80011d4 <HAL_RCC_OscConfig+0x2a4>)
 8000f50:	68db      	ldr	r3, [r3, #12]
 8000f52:	f003 0303 	and.w	r3, r3, #3
 8000f56:	617b      	str	r3, [r7, #20]

  /*----------------------------- MSI Configuration --------------------------*/
  if(((RCC_OscInitStruct->OscillatorType) & RCC_OSCILLATORTYPE_MSI) == RCC_OSCILLATORTYPE_MSI)
 8000f58:	687b      	ldr	r3, [r7, #4]
 8000f5a:	681b      	ldr	r3, [r3, #0]
 8000f5c:	f003 0310 	and.w	r3, r3, #16
 8000f60:	2b00      	cmp	r3, #0
 8000f62:	f000 80ea 	beq.w	800113a <HAL_RCC_OscConfig+0x20a>
    assert_param(IS_RCC_MSI(RCC_OscInitStruct->MSIState));
    assert_param(IS_RCC_MSICALIBRATION_VALUE(RCC_OscInitStruct->MSICalibrationValue));
    assert_param(IS_RCC_MSI_CLOCK_RANGE(RCC_OscInitStruct->MSIClockRange));

    /* Check if MSI is used as system clock or as PLL source when PLL is selected as system clock */
    if((sysclk_source == RCC_CFGR_SWS_MSI) ||
 8000f66:	69bb      	ldr	r3, [r7, #24]
 8000f68:	2b00      	cmp	r3, #0
 8000f6a:	d007      	beq.n	8000f7c <HAL_RCC_OscConfig+0x4c>
 8000f6c:	69bb      	ldr	r3, [r7, #24]
 8000f6e:	2b0c      	cmp	r3, #12
 8000f70:	f040 8091 	bne.w	8001096 <HAL_RCC_OscConfig+0x166>
       ((sysclk_source == RCC_CFGR_SWS_PLL) && (pll_config == RCC_PLLSOURCE_MSI)))
 8000f74:	697b      	ldr	r3, [r7, #20]
 8000f76:	2b01      	cmp	r3, #1
 8000f78:	f040 808d 	bne.w	8001096 <HAL_RCC_OscConfig+0x166>
    {
      if((READ_BIT(RCC->CR, RCC_CR_MSIRDY) != 0U) && (RCC_OscInitStruct->MSIState == RCC_MSI_OFF))
 8000f7c:	4b95      	ldr	r3, [pc, #596]	; (80011d4 <HAL_RCC_OscConfig+0x2a4>)
 8000f7e:	681b      	ldr	r3, [r3, #0]
 8000f80:	f003 0302 	and.w	r3, r3, #2
 8000f84:	2b00      	cmp	r3, #0
 8000f86:	d005      	beq.n	8000f94 <HAL_RCC_OscConfig+0x64>
 8000f88:	687b      	ldr	r3, [r7, #4]
 8000f8a:	699b      	ldr	r3, [r3, #24]
 8000f8c:	2b00      	cmp	r3, #0
 8000f8e:	d101      	bne.n	8000f94 <HAL_RCC_OscConfig+0x64>
      {
        return HAL_ERROR;
 8000f90:	2301      	movs	r3, #1
 8000f92:	e3ee      	b.n	8001772 <HAL_RCC_OscConfig+0x842>
      else
      {
        /* To correctly read data from FLASH memory, the number of wait states (LATENCY)
           must be correctly programmed according to the frequency of the CPU clock
           (HCLK) and the supply voltage of the device. */
        if(RCC_OscInitStruct->MSIClockRange > __HAL_RCC_GET_MSI_RANGE())
 8000f94:	687b      	ldr	r3, [r7, #4]
 8000f96:	6a1a      	ldr	r2, [r3, #32]
 8000f98:	4b8e      	ldr	r3, [pc, #568]	; (80011d4 <HAL_RCC_OscConfig+0x2a4>)
 8000f9a:	681b      	ldr	r3, [r3, #0]
 8000f9c:	f003 0308 	and.w	r3, r3, #8
 8000fa0:	2b00      	cmp	r3, #0
 8000fa2:	d004      	beq.n	8000fae <HAL_RCC_OscConfig+0x7e>
 8000fa4:	4b8b      	ldr	r3, [pc, #556]	; (80011d4 <HAL_RCC_OscConfig+0x2a4>)
 8000fa6:	681b      	ldr	r3, [r3, #0]
 8000fa8:	f003 03f0 	and.w	r3, r3, #240	; 0xf0
 8000fac:	e005      	b.n	8000fba <HAL_RCC_OscConfig+0x8a>
 8000fae:	4b89      	ldr	r3, [pc, #548]	; (80011d4 <HAL_RCC_OscConfig+0x2a4>)
 8000fb0:	f8d3 3094 	ldr.w	r3, [r3, #148]	; 0x94
 8000fb4:	091b      	lsrs	r3, r3, #4
 8000fb6:	f003 03f0 	and.w	r3, r3, #240	; 0xf0
 8000fba:	4293      	cmp	r3, r2
 8000fbc:	d223      	bcs.n	8001006 <HAL_RCC_OscConfig+0xd6>
        {
          /* First increase number of wait states update if necessary */
          if(RCC_SetFlashLatencyFromMSIRange(RCC_OscInitStruct->MSIClockRange) != HAL_OK)
 8000fbe:	687b      	ldr	r3, [r7, #4]
 8000fc0:	6a1b      	ldr	r3, [r3, #32]
 8000fc2:	4618      	mov	r0, r3
 8000fc4:	f000 fd50 	bl	8001a68 <RCC_SetFlashLatencyFromMSIRange>
 8000fc8:	4603      	mov	r3, r0
 8000fca:	2b00      	cmp	r3, #0
 8000fcc:	d001      	beq.n	8000fd2 <HAL_RCC_OscConfig+0xa2>
          {
            return HAL_ERROR;
 8000fce:	2301      	movs	r3, #1
 8000fd0:	e3cf      	b.n	8001772 <HAL_RCC_OscConfig+0x842>
          }

          /* Selects the Multiple Speed oscillator (MSI) clock range .*/
          __HAL_RCC_MSI_RANGE_CONFIG(RCC_OscInitStruct->MSIClockRange);
 8000fd2:	4b80      	ldr	r3, [pc, #512]	; (80011d4 <HAL_RCC_OscConfig+0x2a4>)
 8000fd4:	681b      	ldr	r3, [r3, #0]
 8000fd6:	4a7f      	ldr	r2, [pc, #508]	; (80011d4 <HAL_RCC_OscConfig+0x2a4>)
 8000fd8:	f043 0308 	orr.w	r3, r3, #8
 8000fdc:	6013      	str	r3, [r2, #0]
 8000fde:	4b7d      	ldr	r3, [pc, #500]	; (80011d4 <HAL_RCC_OscConfig+0x2a4>)
 8000fe0:	681b      	ldr	r3, [r3, #0]
 8000fe2:	f023 02f0 	bic.w	r2, r3, #240	; 0xf0
 8000fe6:	687b      	ldr	r3, [r7, #4]
 8000fe8:	6a1b      	ldr	r3, [r3, #32]
 8000fea:	497a      	ldr	r1, [pc, #488]	; (80011d4 <HAL_RCC_OscConfig+0x2a4>)
 8000fec:	4313      	orrs	r3, r2
 8000fee:	600b      	str	r3, [r1, #0]
          /* Adjusts the Multiple Speed oscillator (MSI) calibration value.*/
          __HAL_RCC_MSI_CALIBRATIONVALUE_ADJUST(RCC_OscInitStruct->MSICalibrationValue);
 8000ff0:	4b78      	ldr	r3, [pc, #480]	; (80011d4 <HAL_RCC_OscConfig+0x2a4>)
 8000ff2:	685b      	ldr	r3, [r3, #4]
 8000ff4:	f423 427f 	bic.w	r2, r3, #65280	; 0xff00
 8000ff8:	687b      	ldr	r3, [r7, #4]
 8000ffa:	69db      	ldr	r3, [r3, #28]
 8000ffc:	021b      	lsls	r3, r3, #8
 8000ffe:	4975      	ldr	r1, [pc, #468]	; (80011d4 <HAL_RCC_OscConfig+0x2a4>)
 8001000:	4313      	orrs	r3, r2
 8001002:	604b      	str	r3, [r1, #4]
 8001004:	e025      	b.n	8001052 <HAL_RCC_OscConfig+0x122>
        }
        else
        {
          /* Else, keep current flash latency while decreasing applies */
          /* Selects the Multiple Speed oscillator (MSI) clock range .*/
          __HAL_RCC_MSI_RANGE_CONFIG(RCC_OscInitStruct->MSIClockRange);
 8001006:	4b73      	ldr	r3, [pc, #460]	; (80011d4 <HAL_RCC_OscConfig+0x2a4>)
 8001008:	681b      	ldr	r3, [r3, #0]
 800100a:	4a72      	ldr	r2, [pc, #456]	; (80011d4 <HAL_RCC_OscConfig+0x2a4>)
 800100c:	f043 0308 	orr.w	r3, r3, #8
 8001010:	6013      	str	r3, [r2, #0]
 8001012:	4b70      	ldr	r3, [pc, #448]	; (80011d4 <HAL_RCC_OscConfig+0x2a4>)
 8001014:	681b      	ldr	r3, [r3, #0]
 8001016:	f023 02f0 	bic.w	r2, r3, #240	; 0xf0
 800101a:	687b      	ldr	r3, [r7, #4]
 800101c:	6a1b      	ldr	r3, [r3, #32]
 800101e:	496d      	ldr	r1, [pc, #436]	; (80011d4 <HAL_RCC_OscConfig+0x2a4>)
 8001020:	4313      	orrs	r3, r2
 8001022:	600b      	str	r3, [r1, #0]
          /* Adjusts the Multiple Speed oscillator (MSI) calibration value.*/
          __HAL_RCC_MSI_CALIBRATIONVALUE_ADJUST(RCC_OscInitStruct->MSICalibrationValue);
 8001024:	4b6b      	ldr	r3, [pc, #428]	; (80011d4 <HAL_RCC_OscConfig+0x2a4>)
 8001026:	685b      	ldr	r3, [r3, #4]
 8001028:	f423 427f 	bic.w	r2, r3, #65280	; 0xff00
 800102c:	687b      	ldr	r3, [r7, #4]
 800102e:	69db      	ldr	r3, [r3, #28]
 8001030:	021b      	lsls	r3, r3, #8
 8001032:	4968      	ldr	r1, [pc, #416]	; (80011d4 <HAL_RCC_OscConfig+0x2a4>)
 8001034:	4313      	orrs	r3, r2
 8001036:	604b      	str	r3, [r1, #4]

          /* Decrease number of wait states update if necessary */
          /* Only possible when MSI is the System clock source  */
          if(sysclk_source == RCC_CFGR_SWS_MSI)
 8001038:	69bb      	ldr	r3, [r7, #24]
 800103a:	2b00      	cmp	r3, #0
 800103c:	d109      	bne.n	8001052 <HAL_RCC_OscConfig+0x122>
          {
            if(RCC_SetFlashLatencyFromMSIRange(RCC_OscInitStruct->MSIClockRange) != HAL_OK)
 800103e:	687b      	ldr	r3, [r7, #4]
 8001040:	6a1b      	ldr	r3, [r3, #32]
 8001042:	4618      	mov	r0, r3
 8001044:	f000 fd10 	bl	8001a68 <RCC_SetFlashLatencyFromMSIRange>
 8001048:	4603      	mov	r3, r0
 800104a:	2b00      	cmp	r3, #0
 800104c:	d001      	beq.n	8001052 <HAL_RCC_OscConfig+0x122>
            {
              return HAL_ERROR;
 800104e:	2301      	movs	r3, #1
 8001050:	e38f      	b.n	8001772 <HAL_RCC_OscConfig+0x842>
            }
          }
        }

        /* Update the SystemCoreClock global variable */
        SystemCoreClock = HAL_RCC_GetSysClockFreq() >> (AHBPrescTable[READ_BIT(RCC->CFGR, RCC_CFGR_HPRE) >> RCC_CFGR_HPRE_Pos] & 0x1FU);
 8001052:	f000 fc7b 	bl	800194c <HAL_RCC_GetSysClockFreq>
 8001056:	4601      	mov	r1, r0
 8001058:	4b5e      	ldr	r3, [pc, #376]	; (80011d4 <HAL_RCC_OscConfig+0x2a4>)
 800105a:	689b      	ldr	r3, [r3, #8]
 800105c:	091b      	lsrs	r3, r3, #4
 800105e:	f003 030f 	and.w	r3, r3, #15
 8001062:	4a5d      	ldr	r2, [pc, #372]	; (80011d8 <HAL_RCC_OscConfig+0x2a8>)
 8001064:	f859 2002 	ldr.w	r2, [r9, r2]
 8001068:	5cd3      	ldrb	r3, [r2, r3]
 800106a:	f003 031f 	and.w	r3, r3, #31
 800106e:	fa21 f303 	lsr.w	r3, r1, r3
 8001072:	4a5a      	ldr	r2, [pc, #360]	; (80011dc <HAL_RCC_OscConfig+0x2ac>)
 8001074:	f859 2002 	ldr.w	r2, [r9, r2]
 8001078:	6013      	str	r3, [r2, #0]

        /* Configure the source of time base considering new system clocks settings*/
        status = HAL_InitTick(uwTickPrio);
 800107a:	4b59      	ldr	r3, [pc, #356]	; (80011e0 <HAL_RCC_OscConfig+0x2b0>)
 800107c:	f859 3003 	ldr.w	r3, [r9, r3]
 8001080:	681b      	ldr	r3, [r3, #0]
 8001082:	4618      	mov	r0, r3
 8001084:	f7ff fb92 	bl	80007ac <HAL_InitTick>
 8001088:	4603      	mov	r3, r0
 800108a:	73fb      	strb	r3, [r7, #15]
        if(status != HAL_OK)
 800108c:	7bfb      	ldrb	r3, [r7, #15]
 800108e:	2b00      	cmp	r3, #0
 8001090:	d052      	beq.n	8001138 <HAL_RCC_OscConfig+0x208>
        {
          return status;
 8001092:	7bfb      	ldrb	r3, [r7, #15]
 8001094:	e36d      	b.n	8001772 <HAL_RCC_OscConfig+0x842>
      }
    }
    else
    {
      /* Check the MSI State */
      if(RCC_OscInitStruct->MSIState != RCC_MSI_OFF)
 8001096:	687b      	ldr	r3, [r7, #4]
 8001098:	699b      	ldr	r3, [r3, #24]
 800109a:	2b00      	cmp	r3, #0
 800109c:	d032      	beq.n	8001104 <HAL_RCC_OscConfig+0x1d4>
      {
        /* Enable the Internal High Speed oscillator (MSI). */
        __HAL_RCC_MSI_ENABLE();
 800109e:	4b4d      	ldr	r3, [pc, #308]	; (80011d4 <HAL_RCC_OscConfig+0x2a4>)
 80010a0:	681b      	ldr	r3, [r3, #0]
 80010a2:	4a4c      	ldr	r2, [pc, #304]	; (80011d4 <HAL_RCC_OscConfig+0x2a4>)
 80010a4:	f043 0301 	orr.w	r3, r3, #1
 80010a8:	6013      	str	r3, [r2, #0]

        /* Get timeout */
        tickstart = HAL_GetTick();
 80010aa:	f7ff fbdd 	bl	8000868 <HAL_GetTick>
 80010ae:	6138      	str	r0, [r7, #16]

        /* Wait till MSI is ready */
        while(READ_BIT(RCC->CR, RCC_CR_MSIRDY) == 0U)
 80010b0:	e008      	b.n	80010c4 <HAL_RCC_OscConfig+0x194>
        {
          if((HAL_GetTick() - tickstart) > MSI_TIMEOUT_VALUE)
 80010b2:	f7ff fbd9 	bl	8000868 <HAL_GetTick>
 80010b6:	4602      	mov	r2, r0
 80010b8:	693b      	ldr	r3, [r7, #16]
 80010ba:	1ad3      	subs	r3, r2, r3
 80010bc:	2b02      	cmp	r3, #2
 80010be:	d901      	bls.n	80010c4 <HAL_RCC_OscConfig+0x194>
          {
            return HAL_TIMEOUT;
 80010c0:	2303      	movs	r3, #3
 80010c2:	e356      	b.n	8001772 <HAL_RCC_OscConfig+0x842>
        while(READ_BIT(RCC->CR, RCC_CR_MSIRDY) == 0U)
 80010c4:	4b43      	ldr	r3, [pc, #268]	; (80011d4 <HAL_RCC_OscConfig+0x2a4>)
 80010c6:	681b      	ldr	r3, [r3, #0]
 80010c8:	f003 0302 	and.w	r3, r3, #2
 80010cc:	2b00      	cmp	r3, #0
 80010ce:	d0f0      	beq.n	80010b2 <HAL_RCC_OscConfig+0x182>
          }
        }
         /* Selects the Multiple Speed oscillator (MSI) clock range .*/
        __HAL_RCC_MSI_RANGE_CONFIG(RCC_OscInitStruct->MSIClockRange);
 80010d0:	4b40      	ldr	r3, [pc, #256]	; (80011d4 <HAL_RCC_OscConfig+0x2a4>)
 80010d2:	681b      	ldr	r3, [r3, #0]
 80010d4:	4a3f      	ldr	r2, [pc, #252]	; (80011d4 <HAL_RCC_OscConfig+0x2a4>)
 80010d6:	f043 0308 	orr.w	r3, r3, #8
 80010da:	6013      	str	r3, [r2, #0]
 80010dc:	4b3d      	ldr	r3, [pc, #244]	; (80011d4 <HAL_RCC_OscConfig+0x2a4>)
 80010de:	681b      	ldr	r3, [r3, #0]
 80010e0:	f023 02f0 	bic.w	r2, r3, #240	; 0xf0
 80010e4:	687b      	ldr	r3, [r7, #4]
 80010e6:	6a1b      	ldr	r3, [r3, #32]
 80010e8:	493a      	ldr	r1, [pc, #232]	; (80011d4 <HAL_RCC_OscConfig+0x2a4>)
 80010ea:	4313      	orrs	r3, r2
 80010ec:	600b      	str	r3, [r1, #0]
         /* Adjusts the Multiple Speed oscillator (MSI) calibration value.*/
        __HAL_RCC_MSI_CALIBRATIONVALUE_ADJUST(RCC_OscInitStruct->MSICalibrationValue);
 80010ee:	4b39      	ldr	r3, [pc, #228]	; (80011d4 <HAL_RCC_OscConfig+0x2a4>)
 80010f0:	685b      	ldr	r3, [r3, #4]
 80010f2:	f423 427f 	bic.w	r2, r3, #65280	; 0xff00
 80010f6:	687b      	ldr	r3, [r7, #4]
 80010f8:	69db      	ldr	r3, [r3, #28]
 80010fa:	021b      	lsls	r3, r3, #8
 80010fc:	4935      	ldr	r1, [pc, #212]	; (80011d4 <HAL_RCC_OscConfig+0x2a4>)
 80010fe:	4313      	orrs	r3, r2
 8001100:	604b      	str	r3, [r1, #4]
 8001102:	e01a      	b.n	800113a <HAL_RCC_OscConfig+0x20a>

      }
      else
      {
        /* Disable the Internal High Speed oscillator (MSI). */
        __HAL_RCC_MSI_DISABLE();
 8001104:	4b33      	ldr	r3, [pc, #204]	; (80011d4 <HAL_RCC_OscConfig+0x2a4>)
 8001106:	681b      	ldr	r3, [r3, #0]
 8001108:	4a32      	ldr	r2, [pc, #200]	; (80011d4 <HAL_RCC_OscConfig+0x2a4>)
 800110a:	f023 0301 	bic.w	r3, r3, #1
 800110e:	6013      	str	r3, [r2, #0]

        /* Get timeout */
        tickstart = HAL_GetTick();
 8001110:	f7ff fbaa 	bl	8000868 <HAL_GetTick>
 8001114:	6138      	str	r0, [r7, #16]

        /* Wait till MSI is ready */
        while(READ_BIT(RCC->CR, RCC_CR_MSIRDY) != 0U)
 8001116:	e008      	b.n	800112a <HAL_RCC_OscConfig+0x1fa>
        {
          if((HAL_GetTick() - tickstart) > MSI_TIMEOUT_VALUE)
 8001118:	f7ff fba6 	bl	8000868 <HAL_GetTick>
 800111c:	4602      	mov	r2, r0
 800111e:	693b      	ldr	r3, [r7, #16]
 8001120:	1ad3      	subs	r3, r2, r3
 8001122:	2b02      	cmp	r3, #2
 8001124:	d901      	bls.n	800112a <HAL_RCC_OscConfig+0x1fa>
          {
            return HAL_TIMEOUT;
 8001126:	2303      	movs	r3, #3
 8001128:	e323      	b.n	8001772 <HAL_RCC_OscConfig+0x842>
        while(READ_BIT(RCC->CR, RCC_CR_MSIRDY) != 0U)
 800112a:	4b2a      	ldr	r3, [pc, #168]	; (80011d4 <HAL_RCC_OscConfig+0x2a4>)
 800112c:	681b      	ldr	r3, [r3, #0]
 800112e:	f003 0302 	and.w	r3, r3, #2
 8001132:	2b00      	cmp	r3, #0
 8001134:	d1f0      	bne.n	8001118 <HAL_RCC_OscConfig+0x1e8>
 8001136:	e000      	b.n	800113a <HAL_RCC_OscConfig+0x20a>
      if((READ_BIT(RCC->CR, RCC_CR_MSIRDY) != 0U) && (RCC_OscInitStruct->MSIState == RCC_MSI_OFF))
 8001138:	bf00      	nop
        }
      }
    }
  }
  /*------------------------------- HSE Configuration ------------------------*/
  if(((RCC_OscInitStruct->OscillatorType) & RCC_OSCILLATORTYPE_HSE) == RCC_OSCILLATORTYPE_HSE)
 800113a:	687b      	ldr	r3, [r7, #4]
 800113c:	681b      	ldr	r3, [r3, #0]
 800113e:	f003 0301 	and.w	r3, r3, #1
 8001142:	2b00      	cmp	r3, #0
 8001144:	d073      	beq.n	800122e <HAL_RCC_OscConfig+0x2fe>
  {
    /* Check the parameters */
    assert_param(IS_RCC_HSE(RCC_OscInitStruct->HSEState));

    /* When the HSE is used as system clock or clock source for PLL in these cases it is not allowed to be disabled */
    if((sysclk_source == RCC_CFGR_SWS_HSE) ||
 8001146:	69bb      	ldr	r3, [r7, #24]
 8001148:	2b08      	cmp	r3, #8
 800114a:	d005      	beq.n	8001158 <HAL_RCC_OscConfig+0x228>
 800114c:	69bb      	ldr	r3, [r7, #24]
 800114e:	2b0c      	cmp	r3, #12
 8001150:	d10e      	bne.n	8001170 <HAL_RCC_OscConfig+0x240>
       ((sysclk_source == RCC_CFGR_SWS_PLL) && (pll_config == RCC_PLLSOURCE_HSE)))
 8001152:	697b      	ldr	r3, [r7, #20]
 8001154:	2b03      	cmp	r3, #3
 8001156:	d10b      	bne.n	8001170 <HAL_RCC_OscConfig+0x240>
    {
      if((READ_BIT(RCC->CR, RCC_CR_HSERDY) != 0U) && (RCC_OscInitStruct->HSEState == RCC_HSE_OFF))
 8001158:	4b1e      	ldr	r3, [pc, #120]	; (80011d4 <HAL_RCC_OscConfig+0x2a4>)
 800115a:	681b      	ldr	r3, [r3, #0]
 800115c:	f403 3300 	and.w	r3, r3, #131072	; 0x20000
 8001160:	2b00      	cmp	r3, #0
 8001162:	d063      	beq.n	800122c <HAL_RCC_OscConfig+0x2fc>
 8001164:	687b      	ldr	r3, [r7, #4]
 8001166:	685b      	ldr	r3, [r3, #4]
 8001168:	2b00      	cmp	r3, #0
 800116a:	d15f      	bne.n	800122c <HAL_RCC_OscConfig+0x2fc>
      {
        return HAL_ERROR;
 800116c:	2301      	movs	r3, #1
 800116e:	e300      	b.n	8001772 <HAL_RCC_OscConfig+0x842>
      }
    }
    else
    {
      /* Set the new HSE configuration ---------------------------------------*/
      __HAL_RCC_HSE_CONFIG(RCC_OscInitStruct->HSEState);
 8001170:	687b      	ldr	r3, [r7, #4]
 8001172:	685b      	ldr	r3, [r3, #4]
 8001174:	f5b3 3f80 	cmp.w	r3, #65536	; 0x10000
 8001178:	d106      	bne.n	8001188 <HAL_RCC_OscConfig+0x258>
 800117a:	4b16      	ldr	r3, [pc, #88]	; (80011d4 <HAL_RCC_OscConfig+0x2a4>)
 800117c:	681b      	ldr	r3, [r3, #0]
 800117e:	4a15      	ldr	r2, [pc, #84]	; (80011d4 <HAL_RCC_OscConfig+0x2a4>)
 8001180:	f443 3380 	orr.w	r3, r3, #65536	; 0x10000
 8001184:	6013      	str	r3, [r2, #0]
 8001186:	e01d      	b.n	80011c4 <HAL_RCC_OscConfig+0x294>
 8001188:	687b      	ldr	r3, [r7, #4]
 800118a:	685b      	ldr	r3, [r3, #4]
 800118c:	f5b3 2fa0 	cmp.w	r3, #327680	; 0x50000
 8001190:	d10c      	bne.n	80011ac <HAL_RCC_OscConfig+0x27c>
 8001192:	4b10      	ldr	r3, [pc, #64]	; (80011d4 <HAL_RCC_OscConfig+0x2a4>)
 8001194:	681b      	ldr	r3, [r3, #0]
 8001196:	4a0f      	ldr	r2, [pc, #60]	; (80011d4 <HAL_RCC_OscConfig+0x2a4>)
 8001198:	f443 2380 	orr.w	r3, r3, #262144	; 0x40000
 800119c:	6013      	str	r3, [r2, #0]
 800119e:	4b0d      	ldr	r3, [pc, #52]	; (80011d4 <HAL_RCC_OscConfig+0x2a4>)
 80011a0:	681b      	ldr	r3, [r3, #0]
 80011a2:	4a0c      	ldr	r2, [pc, #48]	; (80011d4 <HAL_RCC_OscConfig+0x2a4>)
 80011a4:	f443 3380 	orr.w	r3, r3, #65536	; 0x10000
 80011a8:	6013      	str	r3, [r2, #0]
 80011aa:	e00b      	b.n	80011c4 <HAL_RCC_OscConfig+0x294>
 80011ac:	4b09      	ldr	r3, [pc, #36]	; (80011d4 <HAL_RCC_OscConfig+0x2a4>)
 80011ae:	681b      	ldr	r3, [r3, #0]
 80011b0:	4a08      	ldr	r2, [pc, #32]	; (80011d4 <HAL_RCC_OscConfig+0x2a4>)
 80011b2:	f423 3380 	bic.w	r3, r3, #65536	; 0x10000
 80011b6:	6013      	str	r3, [r2, #0]
 80011b8:	4b06      	ldr	r3, [pc, #24]	; (80011d4 <HAL_RCC_OscConfig+0x2a4>)
 80011ba:	681b      	ldr	r3, [r3, #0]
 80011bc:	4a05      	ldr	r2, [pc, #20]	; (80011d4 <HAL_RCC_OscConfig+0x2a4>)
 80011be:	f423 2380 	bic.w	r3, r3, #262144	; 0x40000
 80011c2:	6013      	str	r3, [r2, #0]

      /* Check the HSE State */
      if(RCC_OscInitStruct->HSEState != RCC_HSE_OFF)
 80011c4:	687b      	ldr	r3, [r7, #4]
 80011c6:	685b      	ldr	r3, [r3, #4]
 80011c8:	2b00      	cmp	r3, #0
 80011ca:	d01b      	beq.n	8001204 <HAL_RCC_OscConfig+0x2d4>
      {
        /* Get Start Tick*/
        tickstart = HAL_GetTick();
 80011cc:	f7ff fb4c 	bl	8000868 <HAL_GetTick>
 80011d0:	6138      	str	r0, [r7, #16]

        /* Wait till HSE is ready */
        while(READ_BIT(RCC->CR, RCC_CR_HSERDY) == 0U)
 80011d2:	e010      	b.n	80011f6 <HAL_RCC_OscConfig+0x2c6>
 80011d4:	40021000 	.word	0x40021000
 80011d8:	00000018 	.word	0x00000018
 80011dc:	00000004 	.word	0x00000004
 80011e0:	00000010 	.word	0x00000010
        {
          if((HAL_GetTick() - tickstart) > HSE_TIMEOUT_VALUE)
 80011e4:	f7ff fb40 	bl	8000868 <HAL_GetTick>
 80011e8:	4602      	mov	r2, r0
 80011ea:	693b      	ldr	r3, [r7, #16]
 80011ec:	1ad3      	subs	r3, r2, r3
 80011ee:	2b64      	cmp	r3, #100	; 0x64
 80011f0:	d901      	bls.n	80011f6 <HAL_RCC_OscConfig+0x2c6>
          {
            return HAL_TIMEOUT;
 80011f2:	2303      	movs	r3, #3
 80011f4:	e2bd      	b.n	8001772 <HAL_RCC_OscConfig+0x842>
        while(READ_BIT(RCC->CR, RCC_CR_HSERDY) == 0U)
 80011f6:	4baf      	ldr	r3, [pc, #700]	; (80014b4 <HAL_RCC_OscConfig+0x584>)
 80011f8:	681b      	ldr	r3, [r3, #0]
 80011fa:	f403 3300 	and.w	r3, r3, #131072	; 0x20000
 80011fe:	2b00      	cmp	r3, #0
 8001200:	d0f0      	beq.n	80011e4 <HAL_RCC_OscConfig+0x2b4>
 8001202:	e014      	b.n	800122e <HAL_RCC_OscConfig+0x2fe>
        }
      }
      else
      {
        /* Get Start Tick*/
        tickstart = HAL_GetTick();
 8001204:	f7ff fb30 	bl	8000868 <HAL_GetTick>
 8001208:	6138      	str	r0, [r7, #16]

        /* Wait till HSE is disabled */
        while(READ_BIT(RCC->CR, RCC_CR_HSERDY) != 0U)
 800120a:	e008      	b.n	800121e <HAL_RCC_OscConfig+0x2ee>
        {
          if((HAL_GetTick() - tickstart) > HSE_TIMEOUT_VALUE)
 800120c:	f7ff fb2c 	bl	8000868 <HAL_GetTick>
 8001210:	4602      	mov	r2, r0
 8001212:	693b      	ldr	r3, [r7, #16]
 8001214:	1ad3      	subs	r3, r2, r3
 8001216:	2b64      	cmp	r3, #100	; 0x64
 8001218:	d901      	bls.n	800121e <HAL_RCC_OscConfig+0x2ee>
          {
            return HAL_TIMEOUT;
 800121a:	2303      	movs	r3, #3
 800121c:	e2a9      	b.n	8001772 <HAL_RCC_OscConfig+0x842>
        while(READ_BIT(RCC->CR, RCC_CR_HSERDY) != 0U)
 800121e:	4ba5      	ldr	r3, [pc, #660]	; (80014b4 <HAL_RCC_OscConfig+0x584>)
 8001220:	681b      	ldr	r3, [r3, #0]
 8001222:	f403 3300 	and.w	r3, r3, #131072	; 0x20000
 8001226:	2b00      	cmp	r3, #0
 8001228:	d1f0      	bne.n	800120c <HAL_RCC_OscConfig+0x2dc>
 800122a:	e000      	b.n	800122e <HAL_RCC_OscConfig+0x2fe>
      if((READ_BIT(RCC->CR, RCC_CR_HSERDY) != 0U) && (RCC_OscInitStruct->HSEState == RCC_HSE_OFF))
 800122c:	bf00      	nop
        }
      }
    }
  }
  /*----------------------------- HSI Configuration --------------------------*/
  if(((RCC_OscInitStruct->OscillatorType) & RCC_OSCILLATORTYPE_HSI) == RCC_OSCILLATORTYPE_HSI)
 800122e:	687b      	ldr	r3, [r7, #4]
 8001230:	681b      	ldr	r3, [r3, #0]
 8001232:	f003 0302 	and.w	r3, r3, #2
 8001236:	2b00      	cmp	r3, #0
 8001238:	d060      	beq.n	80012fc <HAL_RCC_OscConfig+0x3cc>
    /* Check the parameters */
    assert_param(IS_RCC_HSI(RCC_OscInitStruct->HSIState));
    assert_param(IS_RCC_HSI_CALIBRATION_VALUE(RCC_OscInitStruct->HSICalibrationValue));

    /* Check if HSI is used as system clock or as PLL source when PLL is selected as system clock */
    if((sysclk_source == RCC_CFGR_SWS_HSI) ||
 800123a:	69bb      	ldr	r3, [r7, #24]
 800123c:	2b04      	cmp	r3, #4
 800123e:	d005      	beq.n	800124c <HAL_RCC_OscConfig+0x31c>
 8001240:	69bb      	ldr	r3, [r7, #24]
 8001242:	2b0c      	cmp	r3, #12
 8001244:	d119      	bne.n	800127a <HAL_RCC_OscConfig+0x34a>
       ((sysclk_source == RCC_CFGR_SWS_PLL) && (pll_config == RCC_PLLSOURCE_HSI)))
 8001246:	697b      	ldr	r3, [r7, #20]
 8001248:	2b02      	cmp	r3, #2
 800124a:	d116      	bne.n	800127a <HAL_RCC_OscConfig+0x34a>
    {
      /* When HSI is used as system clock it will not be disabled */
      if((READ_BIT(RCC->CR, RCC_CR_HSIRDY) != 0U) && (RCC_OscInitStruct->HSIState == RCC_HSI_OFF))
 800124c:	4b99      	ldr	r3, [pc, #612]	; (80014b4 <HAL_RCC_OscConfig+0x584>)
 800124e:	681b      	ldr	r3, [r3, #0]
 8001250:	f403 6380 	and.w	r3, r3, #1024	; 0x400
 8001254:	2b00      	cmp	r3, #0
 8001256:	d005      	beq.n	8001264 <HAL_RCC_OscConfig+0x334>
 8001258:	687b      	ldr	r3, [r7, #4]
 800125a:	68db      	ldr	r3, [r3, #12]
 800125c:	2b00      	cmp	r3, #0
 800125e:	d101      	bne.n	8001264 <HAL_RCC_OscConfig+0x334>
      {
        return HAL_ERROR;
 8001260:	2301      	movs	r3, #1
 8001262:	e286      	b.n	8001772 <HAL_RCC_OscConfig+0x842>
      }
      /* Otherwise, just the calibration is allowed */
      else
      {
        /* Adjusts the Internal High Speed oscillator (HSI) calibration value.*/
        __HAL_RCC_HSI_CALIBRATIONVALUE_ADJUST(RCC_OscInitStruct->HSICalibrationValue);
 8001264:	4b93      	ldr	r3, [pc, #588]	; (80014b4 <HAL_RCC_OscConfig+0x584>)
 8001266:	685b      	ldr	r3, [r3, #4]
 8001268:	f023 52f8 	bic.w	r2, r3, #520093696	; 0x1f000000
 800126c:	687b      	ldr	r3, [r7, #4]
 800126e:	691b      	ldr	r3, [r3, #16]
 8001270:	061b      	lsls	r3, r3, #24
 8001272:	4990      	ldr	r1, [pc, #576]	; (80014b4 <HAL_RCC_OscConfig+0x584>)
 8001274:	4313      	orrs	r3, r2
 8001276:	604b      	str	r3, [r1, #4]
      if((READ_BIT(RCC->CR, RCC_CR_HSIRDY) != 0U) && (RCC_OscInitStruct->HSIState == RCC_HSI_OFF))
 8001278:	e040      	b.n	80012fc <HAL_RCC_OscConfig+0x3cc>
      }
    }
    else
    {
      /* Check the HSI State */
      if(RCC_OscInitStruct->HSIState != RCC_HSI_OFF)
 800127a:	687b      	ldr	r3, [r7, #4]
 800127c:	68db      	ldr	r3, [r3, #12]
 800127e:	2b00      	cmp	r3, #0
 8001280:	d023      	beq.n	80012ca <HAL_RCC_OscConfig+0x39a>
      {
        /* Enable the Internal High Speed oscillator (HSI). */
        __HAL_RCC_HSI_ENABLE();
 8001282:	4b8c      	ldr	r3, [pc, #560]	; (80014b4 <HAL_RCC_OscConfig+0x584>)
 8001284:	681b      	ldr	r3, [r3, #0]
 8001286:	4a8b      	ldr	r2, [pc, #556]	; (80014b4 <HAL_RCC_OscConfig+0x584>)
 8001288:	f443 7380 	orr.w	r3, r3, #256	; 0x100
 800128c:	6013      	str	r3, [r2, #0]

        /* Get Start Tick*/
        tickstart = HAL_GetTick();
 800128e:	f7ff faeb 	bl	8000868 <HAL_GetTick>
 8001292:	6138      	str	r0, [r7, #16]

        /* Wait till HSI is ready */
        while(READ_BIT(RCC->CR, RCC_CR_HSIRDY) == 0U)
 8001294:	e008      	b.n	80012a8 <HAL_RCC_OscConfig+0x378>
        {
          if((HAL_GetTick() - tickstart) > HSI_TIMEOUT_VALUE)
 8001296:	f7ff fae7 	bl	8000868 <HAL_GetTick>
 800129a:	4602      	mov	r2, r0
 800129c:	693b      	ldr	r3, [r7, #16]
 800129e:	1ad3      	subs	r3, r2, r3
 80012a0:	2b02      	cmp	r3, #2
 80012a2:	d901      	bls.n	80012a8 <HAL_RCC_OscConfig+0x378>
          {
            return HAL_TIMEOUT;
 80012a4:	2303      	movs	r3, #3
 80012a6:	e264      	b.n	8001772 <HAL_RCC_OscConfig+0x842>
        while(READ_BIT(RCC->CR, RCC_CR_HSIRDY) == 0U)
 80012a8:	4b82      	ldr	r3, [pc, #520]	; (80014b4 <HAL_RCC_OscConfig+0x584>)
 80012aa:	681b      	ldr	r3, [r3, #0]
 80012ac:	f403 6380 	and.w	r3, r3, #1024	; 0x400
 80012b0:	2b00      	cmp	r3, #0
 80012b2:	d0f0      	beq.n	8001296 <HAL_RCC_OscConfig+0x366>
          }
        }

        /* Adjusts the Internal High Speed oscillator (HSI) calibration value.*/
        __HAL_RCC_HSI_CALIBRATIONVALUE_ADJUST(RCC_OscInitStruct->HSICalibrationValue);
 80012b4:	4b7f      	ldr	r3, [pc, #508]	; (80014b4 <HAL_RCC_OscConfig+0x584>)
 80012b6:	685b      	ldr	r3, [r3, #4]
 80012b8:	f023 52f8 	bic.w	r2, r3, #520093696	; 0x1f000000
 80012bc:	687b      	ldr	r3, [r7, #4]
 80012be:	691b      	ldr	r3, [r3, #16]
 80012c0:	061b      	lsls	r3, r3, #24
 80012c2:	497c      	ldr	r1, [pc, #496]	; (80014b4 <HAL_RCC_OscConfig+0x584>)
 80012c4:	4313      	orrs	r3, r2
 80012c6:	604b      	str	r3, [r1, #4]
 80012c8:	e018      	b.n	80012fc <HAL_RCC_OscConfig+0x3cc>
      }
      else
      {
        /* Disable the Internal High Speed oscillator (HSI). */
        __HAL_RCC_HSI_DISABLE();
 80012ca:	4b7a      	ldr	r3, [pc, #488]	; (80014b4 <HAL_RCC_OscConfig+0x584>)
 80012cc:	681b      	ldr	r3, [r3, #0]
 80012ce:	4a79      	ldr	r2, [pc, #484]	; (80014b4 <HAL_RCC_OscConfig+0x584>)
 80012d0:	f423 7380 	bic.w	r3, r3, #256	; 0x100
 80012d4:	6013      	str	r3, [r2, #0]

        /* Get Start Tick*/
        tickstart = HAL_GetTick();
 80012d6:	f7ff fac7 	bl	8000868 <HAL_GetTick>
 80012da:	6138      	str	r0, [r7, #16]

        /* Wait till HSI is disabled */
        while(READ_BIT(RCC->CR, RCC_CR_HSIRDY) != 0U)
 80012dc:	e008      	b.n	80012f0 <HAL_RCC_OscConfig+0x3c0>
        {
          if((HAL_GetTick() - tickstart) > HSI_TIMEOUT_VALUE)
 80012de:	f7ff fac3 	bl	8000868 <HAL_GetTick>
 80012e2:	4602      	mov	r2, r0
 80012e4:	693b      	ldr	r3, [r7, #16]
 80012e6:	1ad3      	subs	r3, r2, r3
 80012e8:	2b02      	cmp	r3, #2
 80012ea:	d901      	bls.n	80012f0 <HAL_RCC_OscConfig+0x3c0>
          {
            return HAL_TIMEOUT;
 80012ec:	2303      	movs	r3, #3
 80012ee:	e240      	b.n	8001772 <HAL_RCC_OscConfig+0x842>
        while(READ_BIT(RCC->CR, RCC_CR_HSIRDY) != 0U)
 80012f0:	4b70      	ldr	r3, [pc, #448]	; (80014b4 <HAL_RCC_OscConfig+0x584>)
 80012f2:	681b      	ldr	r3, [r3, #0]
 80012f4:	f403 6380 	and.w	r3, r3, #1024	; 0x400
 80012f8:	2b00      	cmp	r3, #0
 80012fa:	d1f0      	bne.n	80012de <HAL_RCC_OscConfig+0x3ae>
        }
      }
    }
  }
  /*------------------------------ LSI Configuration -------------------------*/
  if(((RCC_OscInitStruct->OscillatorType) & RCC_OSCILLATORTYPE_LSI) == RCC_OSCILLATORTYPE_LSI)
 80012fc:	687b      	ldr	r3, [r7, #4]
 80012fe:	681b      	ldr	r3, [r3, #0]
 8001300:	f003 0308 	and.w	r3, r3, #8
 8001304:	2b00      	cmp	r3, #0
 8001306:	d03c      	beq.n	8001382 <HAL_RCC_OscConfig+0x452>
  {
    /* Check the parameters */
    assert_param(IS_RCC_LSI(RCC_OscInitStruct->LSIState));

    /* Check the LSI State */
    if(RCC_OscInitStruct->LSIState != RCC_LSI_OFF)
 8001308:	687b      	ldr	r3, [r7, #4]
 800130a:	695b      	ldr	r3, [r3, #20]
 800130c:	2b00      	cmp	r3, #0
 800130e:	d01c      	beq.n	800134a <HAL_RCC_OscConfig+0x41a>
        MODIFY_REG(RCC->CSR, RCC_CSR_LSIPREDIV, RCC_OscInitStruct->LSIDiv);
      }
#endif /* RCC_CSR_LSIPREDIV */

      /* Enable the Internal Low Speed oscillator (LSI). */
      __HAL_RCC_LSI_ENABLE();
 8001310:	4b68      	ldr	r3, [pc, #416]	; (80014b4 <HAL_RCC_OscConfig+0x584>)
 8001312:	f8d3 3094 	ldr.w	r3, [r3, #148]	; 0x94
 8001316:	4a67      	ldr	r2, [pc, #412]	; (80014b4 <HAL_RCC_OscConfig+0x584>)
 8001318:	f043 0301 	orr.w	r3, r3, #1
 800131c:	f8c2 3094 	str.w	r3, [r2, #148]	; 0x94

      /* Get Start Tick*/
      tickstart = HAL_GetTick();
 8001320:	f7ff faa2 	bl	8000868 <HAL_GetTick>
 8001324:	6138      	str	r0, [r7, #16]

      /* Wait till LSI is ready */
      while(READ_BIT(RCC->CSR, RCC_CSR_LSIRDY) == 0U)
 8001326:	e008      	b.n	800133a <HAL_RCC_OscConfig+0x40a>
      {
        if((HAL_GetTick() - tickstart) > LSI_TIMEOUT_VALUE)
 8001328:	f7ff fa9e 	bl	8000868 <HAL_GetTick>
 800132c:	4602      	mov	r2, r0
 800132e:	693b      	ldr	r3, [r7, #16]
 8001330:	1ad3      	subs	r3, r2, r3
 8001332:	2b02      	cmp	r3, #2
 8001334:	d901      	bls.n	800133a <HAL_RCC_OscConfig+0x40a>
        {
          return HAL_TIMEOUT;
 8001336:	2303      	movs	r3, #3
 8001338:	e21b      	b.n	8001772 <HAL_RCC_OscConfig+0x842>
      while(READ_BIT(RCC->CSR, RCC_CSR_LSIRDY) == 0U)
 800133a:	4b5e      	ldr	r3, [pc, #376]	; (80014b4 <HAL_RCC_OscConfig+0x584>)
 800133c:	f8d3 3094 	ldr.w	r3, [r3, #148]	; 0x94
 8001340:	f003 0302 	and.w	r3, r3, #2
 8001344:	2b00      	cmp	r3, #0
 8001346:	d0ef      	beq.n	8001328 <HAL_RCC_OscConfig+0x3f8>
 8001348:	e01b      	b.n	8001382 <HAL_RCC_OscConfig+0x452>
      }
    }
    else
    {
      /* Disable the Internal Low Speed oscillator (LSI). */
      __HAL_RCC_LSI_DISABLE();
 800134a:	4b5a      	ldr	r3, [pc, #360]	; (80014b4 <HAL_RCC_OscConfig+0x584>)
 800134c:	f8d3 3094 	ldr.w	r3, [r3, #148]	; 0x94
 8001350:	4a58      	ldr	r2, [pc, #352]	; (80014b4 <HAL_RCC_OscConfig+0x584>)
 8001352:	f023 0301 	bic.w	r3, r3, #1
 8001356:	f8c2 3094 	str.w	r3, [r2, #148]	; 0x94

      /* Get Start Tick*/
      tickstart = HAL_GetTick();
 800135a:	f7ff fa85 	bl	8000868 <HAL_GetTick>
 800135e:	6138      	str	r0, [r7, #16]

      /* Wait till LSI is disabled */
      while(READ_BIT(RCC->CSR, RCC_CSR_LSIRDY) != 0U)
 8001360:	e008      	b.n	8001374 <HAL_RCC_OscConfig+0x444>
      {
        if((HAL_GetTick() - tickstart) > LSI_TIMEOUT_VALUE)
 8001362:	f7ff fa81 	bl	8000868 <HAL_GetTick>
 8001366:	4602      	mov	r2, r0
 8001368:	693b      	ldr	r3, [r7, #16]
 800136a:	1ad3      	subs	r3, r2, r3
 800136c:	2b02      	cmp	r3, #2
 800136e:	d901      	bls.n	8001374 <HAL_RCC_OscConfig+0x444>
        {
          return HAL_TIMEOUT;
 8001370:	2303      	movs	r3, #3
 8001372:	e1fe      	b.n	8001772 <HAL_RCC_OscConfig+0x842>
      while(READ_BIT(RCC->CSR, RCC_CSR_LSIRDY) != 0U)
 8001374:	4b4f      	ldr	r3, [pc, #316]	; (80014b4 <HAL_RCC_OscConfig+0x584>)
 8001376:	f8d3 3094 	ldr.w	r3, [r3, #148]	; 0x94
 800137a:	f003 0302 	and.w	r3, r3, #2
 800137e:	2b00      	cmp	r3, #0
 8001380:	d1ef      	bne.n	8001362 <HAL_RCC_OscConfig+0x432>
        }
      }
    }
  }
  /*------------------------------ LSE Configuration -------------------------*/
  if(((RCC_OscInitStruct->OscillatorType) & RCC_OSCILLATORTYPE_LSE) == RCC_OSCILLATORTYPE_LSE)
 8001382:	687b      	ldr	r3, [r7, #4]
 8001384:	681b      	ldr	r3, [r3, #0]
 8001386:	f003 0304 	and.w	r3, r3, #4
 800138a:	2b00      	cmp	r3, #0
 800138c:	f000 80a6 	beq.w	80014dc <HAL_RCC_OscConfig+0x5ac>
  {
    FlagStatus       pwrclkchanged = RESET;
 8001390:	2300      	movs	r3, #0
 8001392:	77fb      	strb	r3, [r7, #31]
    /* Check the parameters */
    assert_param(IS_RCC_LSE(RCC_OscInitStruct->LSEState));

    /* Update LSE configuration in Backup Domain control register    */
    /* Requires to enable write access to Backup Domain of necessary */
    if(HAL_IS_BIT_CLR(RCC->APB1ENR1, RCC_APB1ENR1_PWREN))
 8001394:	4b47      	ldr	r3, [pc, #284]	; (80014b4 <HAL_RCC_OscConfig+0x584>)
 8001396:	6d9b      	ldr	r3, [r3, #88]	; 0x58
 8001398:	f003 5380 	and.w	r3, r3, #268435456	; 0x10000000
 800139c:	2b00      	cmp	r3, #0
 800139e:	d10d      	bne.n	80013bc <HAL_RCC_OscConfig+0x48c>
    {
      __HAL_RCC_PWR_CLK_ENABLE();
 80013a0:	4b44      	ldr	r3, [pc, #272]	; (80014b4 <HAL_RCC_OscConfig+0x584>)
 80013a2:	6d9b      	ldr	r3, [r3, #88]	; 0x58
 80013a4:	4a43      	ldr	r2, [pc, #268]	; (80014b4 <HAL_RCC_OscConfig+0x584>)
 80013a6:	f043 5380 	orr.w	r3, r3, #268435456	; 0x10000000
 80013aa:	6593      	str	r3, [r2, #88]	; 0x58
 80013ac:	4b41      	ldr	r3, [pc, #260]	; (80014b4 <HAL_RCC_OscConfig+0x584>)
 80013ae:	6d9b      	ldr	r3, [r3, #88]	; 0x58
 80013b0:	f003 5380 	and.w	r3, r3, #268435456	; 0x10000000
 80013b4:	60bb      	str	r3, [r7, #8]
 80013b6:	68bb      	ldr	r3, [r7, #8]
      pwrclkchanged = SET;
 80013b8:	2301      	movs	r3, #1
 80013ba:	77fb      	strb	r3, [r7, #31]
    }

    if(HAL_IS_BIT_CLR(PWR->CR1, PWR_CR1_DBP))
 80013bc:	4b3e      	ldr	r3, [pc, #248]	; (80014b8 <HAL_RCC_OscConfig+0x588>)
 80013be:	681b      	ldr	r3, [r3, #0]
 80013c0:	f403 7380 	and.w	r3, r3, #256	; 0x100
 80013c4:	2b00      	cmp	r3, #0
 80013c6:	d118      	bne.n	80013fa <HAL_RCC_OscConfig+0x4ca>
    {
      /* Enable write access to Backup domain */
      SET_BIT(PWR->CR1, PWR_CR1_DBP);
 80013c8:	4b3b      	ldr	r3, [pc, #236]	; (80014b8 <HAL_RCC_OscConfig+0x588>)
 80013ca:	681b      	ldr	r3, [r3, #0]
 80013cc:	4a3a      	ldr	r2, [pc, #232]	; (80014b8 <HAL_RCC_OscConfig+0x588>)
 80013ce:	f443 7380 	orr.w	r3, r3, #256	; 0x100
 80013d2:	6013      	str	r3, [r2, #0]

      /* Wait for Backup domain Write protection disable */
      tickstart = HAL_GetTick();
 80013d4:	f7ff fa48 	bl	8000868 <HAL_GetTick>
 80013d8:	6138      	str	r0, [r7, #16]

      while(HAL_IS_BIT_CLR(PWR->CR1, PWR_CR1_DBP))
 80013da:	e008      	b.n	80013ee <HAL_RCC_OscConfig+0x4be>
      {
        if((HAL_GetTick() - tickstart) > RCC_DBP_TIMEOUT_VALUE)
 80013dc:	f7ff fa44 	bl	8000868 <HAL_GetTick>
 80013e0:	4602      	mov	r2, r0
 80013e2:	693b      	ldr	r3, [r7, #16]
 80013e4:	1ad3      	subs	r3, r2, r3
 80013e6:	2b02      	cmp	r3, #2
 80013e8:	d901      	bls.n	80013ee <HAL_RCC_OscConfig+0x4be>
        {
          return HAL_TIMEOUT;
 80013ea:	2303      	movs	r3, #3
 80013ec:	e1c1      	b.n	8001772 <HAL_RCC_OscConfig+0x842>
      while(HAL_IS_BIT_CLR(PWR->CR1, PWR_CR1_DBP))
 80013ee:	4b32      	ldr	r3, [pc, #200]	; (80014b8 <HAL_RCC_OscConfig+0x588>)
 80013f0:	681b      	ldr	r3, [r3, #0]
 80013f2:	f403 7380 	and.w	r3, r3, #256	; 0x100
 80013f6:	2b00      	cmp	r3, #0
 80013f8:	d0f0      	beq.n	80013dc <HAL_RCC_OscConfig+0x4ac>
    {
      CLEAR_BIT(RCC->BDCR, RCC_BDCR_LSEON);
      CLEAR_BIT(RCC->BDCR, RCC_BDCR_LSEBYP);
    }
#else
    __HAL_RCC_LSE_CONFIG(RCC_OscInitStruct->LSEState);
 80013fa:	687b      	ldr	r3, [r7, #4]
 80013fc:	689b      	ldr	r3, [r3, #8]
 80013fe:	2b01      	cmp	r3, #1
 8001400:	d108      	bne.n	8001414 <HAL_RCC_OscConfig+0x4e4>
 8001402:	4b2c      	ldr	r3, [pc, #176]	; (80014b4 <HAL_RCC_OscConfig+0x584>)
 8001404:	f8d3 3090 	ldr.w	r3, [r3, #144]	; 0x90
 8001408:	4a2a      	ldr	r2, [pc, #168]	; (80014b4 <HAL_RCC_OscConfig+0x584>)
 800140a:	f043 0301 	orr.w	r3, r3, #1
 800140e:	f8c2 3090 	str.w	r3, [r2, #144]	; 0x90
 8001412:	e024      	b.n	800145e <HAL_RCC_OscConfig+0x52e>
 8001414:	687b      	ldr	r3, [r7, #4]
 8001416:	689b      	ldr	r3, [r3, #8]
 8001418:	2b05      	cmp	r3, #5
 800141a:	d110      	bne.n	800143e <HAL_RCC_OscConfig+0x50e>
 800141c:	4b25      	ldr	r3, [pc, #148]	; (80014b4 <HAL_RCC_OscConfig+0x584>)
 800141e:	f8d3 3090 	ldr.w	r3, [r3, #144]	; 0x90
 8001422:	4a24      	ldr	r2, [pc, #144]	; (80014b4 <HAL_RCC_OscConfig+0x584>)
 8001424:	f043 0304 	orr.w	r3, r3, #4
 8001428:	f8c2 3090 	str.w	r3, [r2, #144]	; 0x90
 800142c:	4b21      	ldr	r3, [pc, #132]	; (80014b4 <HAL_RCC_OscConfig+0x584>)
 800142e:	f8d3 3090 	ldr.w	r3, [r3, #144]	; 0x90
 8001432:	4a20      	ldr	r2, [pc, #128]	; (80014b4 <HAL_RCC_OscConfig+0x584>)
 8001434:	f043 0301 	orr.w	r3, r3, #1
 8001438:	f8c2 3090 	str.w	r3, [r2, #144]	; 0x90
 800143c:	e00f      	b.n	800145e <HAL_RCC_OscConfig+0x52e>
 800143e:	4b1d      	ldr	r3, [pc, #116]	; (80014b4 <HAL_RCC_OscConfig+0x584>)
 8001440:	f8d3 3090 	ldr.w	r3, [r3, #144]	; 0x90
 8001444:	4a1b      	ldr	r2, [pc, #108]	; (80014b4 <HAL_RCC_OscConfig+0x584>)
 8001446:	f023 0301 	bic.w	r3, r3, #1
 800144a:	f8c2 3090 	str.w	r3, [r2, #144]	; 0x90
 800144e:	4b19      	ldr	r3, [pc, #100]	; (80014b4 <HAL_RCC_OscConfig+0x584>)
 8001450:	f8d3 3090 	ldr.w	r3, [r3, #144]	; 0x90
 8001454:	4a17      	ldr	r2, [pc, #92]	; (80014b4 <HAL_RCC_OscConfig+0x584>)
 8001456:	f023 0304 	bic.w	r3, r3, #4
 800145a:	f8c2 3090 	str.w	r3, [r2, #144]	; 0x90
#endif /* RCC_BDCR_LSESYSDIS */

    /* Check the LSE State */
    if(RCC_OscInitStruct->LSEState != RCC_LSE_OFF)
 800145e:	687b      	ldr	r3, [r7, #4]
 8001460:	689b      	ldr	r3, [r3, #8]
 8001462:	2b00      	cmp	r3, #0
 8001464:	d016      	beq.n	8001494 <HAL_RCC_OscConfig+0x564>
    {
      /* Get Start Tick*/
      tickstart = HAL_GetTick();
 8001466:	f7ff f9ff 	bl	8000868 <HAL_GetTick>
 800146a:	6138      	str	r0, [r7, #16]

      /* Wait till LSE is ready */
      while(READ_BIT(RCC->BDCR, RCC_BDCR_LSERDY) == 0U)
 800146c:	e00a      	b.n	8001484 <HAL_RCC_OscConfig+0x554>
      {
        if((HAL_GetTick() - tickstart) > RCC_LSE_TIMEOUT_VALUE)
 800146e:	f7ff f9fb 	bl	8000868 <HAL_GetTick>
 8001472:	4602      	mov	r2, r0
 8001474:	693b      	ldr	r3, [r7, #16]
 8001476:	1ad3      	subs	r3, r2, r3
 8001478:	f241 3288 	movw	r2, #5000	; 0x1388
 800147c:	4293      	cmp	r3, r2
 800147e:	d901      	bls.n	8001484 <HAL_RCC_OscConfig+0x554>
        {
          return HAL_TIMEOUT;
 8001480:	2303      	movs	r3, #3
 8001482:	e176      	b.n	8001772 <HAL_RCC_OscConfig+0x842>
      while(READ_BIT(RCC->BDCR, RCC_BDCR_LSERDY) == 0U)
 8001484:	4b0b      	ldr	r3, [pc, #44]	; (80014b4 <HAL_RCC_OscConfig+0x584>)
 8001486:	f8d3 3090 	ldr.w	r3, [r3, #144]	; 0x90
 800148a:	f003 0302 	and.w	r3, r3, #2
 800148e:	2b00      	cmp	r3, #0
 8001490:	d0ed      	beq.n	800146e <HAL_RCC_OscConfig+0x53e>
 8001492:	e01a      	b.n	80014ca <HAL_RCC_OscConfig+0x59a>
      }
    }
    else
    {
      /* Get Start Tick*/
      tickstart = HAL_GetTick();
 8001494:	f7ff f9e8 	bl	8000868 <HAL_GetTick>
 8001498:	6138      	str	r0, [r7, #16]

      /* Wait till LSE is disabled */
      while(READ_BIT(RCC->BDCR, RCC_BDCR_LSERDY) != 0U)
 800149a:	e00f      	b.n	80014bc <HAL_RCC_OscConfig+0x58c>
      {
        if((HAL_GetTick() - tickstart) > RCC_LSE_TIMEOUT_VALUE)
 800149c:	f7ff f9e4 	bl	8000868 <HAL_GetTick>
 80014a0:	4602      	mov	r2, r0
 80014a2:	693b      	ldr	r3, [r7, #16]
 80014a4:	1ad3      	subs	r3, r2, r3
 80014a6:	f241 3288 	movw	r2, #5000	; 0x1388
 80014aa:	4293      	cmp	r3, r2
 80014ac:	d906      	bls.n	80014bc <HAL_RCC_OscConfig+0x58c>
        {
          return HAL_TIMEOUT;
 80014ae:	2303      	movs	r3, #3
 80014b0:	e15f      	b.n	8001772 <HAL_RCC_OscConfig+0x842>
 80014b2:	bf00      	nop
 80014b4:	40021000 	.word	0x40021000
 80014b8:	40007000 	.word	0x40007000
      while(READ_BIT(RCC->BDCR, RCC_BDCR_LSERDY) != 0U)
 80014bc:	4baa      	ldr	r3, [pc, #680]	; (8001768 <HAL_RCC_OscConfig+0x838>)
 80014be:	f8d3 3090 	ldr.w	r3, [r3, #144]	; 0x90
 80014c2:	f003 0302 	and.w	r3, r3, #2
 80014c6:	2b00      	cmp	r3, #0
 80014c8:	d1e8      	bne.n	800149c <HAL_RCC_OscConfig+0x56c>
      CLEAR_BIT(RCC->BDCR, RCC_BDCR_LSESYSDIS);
#endif /* RCC_BDCR_LSESYSDIS */
    }

    /* Restore clock configuration if changed */
    if(pwrclkchanged == SET)
 80014ca:	7ffb      	ldrb	r3, [r7, #31]
 80014cc:	2b01      	cmp	r3, #1
 80014ce:	d105      	bne.n	80014dc <HAL_RCC_OscConfig+0x5ac>
    {
      __HAL_RCC_PWR_CLK_DISABLE();
 80014d0:	4ba5      	ldr	r3, [pc, #660]	; (8001768 <HAL_RCC_OscConfig+0x838>)
 80014d2:	6d9b      	ldr	r3, [r3, #88]	; 0x58
 80014d4:	4aa4      	ldr	r2, [pc, #656]	; (8001768 <HAL_RCC_OscConfig+0x838>)
 80014d6:	f023 5380 	bic.w	r3, r3, #268435456	; 0x10000000
 80014da:	6593      	str	r3, [r2, #88]	; 0x58
    }
  }
#if defined(RCC_HSI48_SUPPORT)
  /*------------------------------ HSI48 Configuration -----------------------*/
  if(((RCC_OscInitStruct->OscillatorType) & RCC_OSCILLATORTYPE_HSI48) == RCC_OSCILLATORTYPE_HSI48)
 80014dc:	687b      	ldr	r3, [r7, #4]
 80014de:	681b      	ldr	r3, [r3, #0]
 80014e0:	f003 0320 	and.w	r3, r3, #32
 80014e4:	2b00      	cmp	r3, #0
 80014e6:	d03c      	beq.n	8001562 <HAL_RCC_OscConfig+0x632>
  {
    /* Check the parameters */
    assert_param(IS_RCC_HSI48(RCC_OscInitStruct->HSI48State));

    /* Check the LSI State */
    if(RCC_OscInitStruct->HSI48State != RCC_HSI48_OFF)
 80014e8:	687b      	ldr	r3, [r7, #4]
 80014ea:	6a5b      	ldr	r3, [r3, #36]	; 0x24
 80014ec:	2b00      	cmp	r3, #0
 80014ee:	d01c      	beq.n	800152a <HAL_RCC_OscConfig+0x5fa>
    {
      /* Enable the Internal Low Speed oscillator (HSI48). */
      __HAL_RCC_HSI48_ENABLE();
 80014f0:	4b9d      	ldr	r3, [pc, #628]	; (8001768 <HAL_RCC_OscConfig+0x838>)
 80014f2:	f8d3 3098 	ldr.w	r3, [r3, #152]	; 0x98
 80014f6:	4a9c      	ldr	r2, [pc, #624]	; (8001768 <HAL_RCC_OscConfig+0x838>)
 80014f8:	f043 0301 	orr.w	r3, r3, #1
 80014fc:	f8c2 3098 	str.w	r3, [r2, #152]	; 0x98

      /* Get Start Tick*/
      tickstart = HAL_GetTick();
 8001500:	f7ff f9b2 	bl	8000868 <HAL_GetTick>
 8001504:	6138      	str	r0, [r7, #16]

      /* Wait till HSI48 is ready */
      while(READ_BIT(RCC->CRRCR, RCC_CRRCR_HSI48RDY) == 0U)
 8001506:	e008      	b.n	800151a <HAL_RCC_OscConfig+0x5ea>
      {
        if((HAL_GetTick() - tickstart) > HSI48_TIMEOUT_VALUE)
 8001508:	f7ff f9ae 	bl	8000868 <HAL_GetTick>
 800150c:	4602      	mov	r2, r0
 800150e:	693b      	ldr	r3, [r7, #16]
 8001510:	1ad3      	subs	r3, r2, r3
 8001512:	2b02      	cmp	r3, #2
 8001514:	d901      	bls.n	800151a <HAL_RCC_OscConfig+0x5ea>
        {
          return HAL_TIMEOUT;
 8001516:	2303      	movs	r3, #3
 8001518:	e12b      	b.n	8001772 <HAL_RCC_OscConfig+0x842>
      while(READ_BIT(RCC->CRRCR, RCC_CRRCR_HSI48RDY) == 0U)
 800151a:	4b93      	ldr	r3, [pc, #588]	; (8001768 <HAL_RCC_OscConfig+0x838>)
 800151c:	f8d3 3098 	ldr.w	r3, [r3, #152]	; 0x98
 8001520:	f003 0302 	and.w	r3, r3, #2
 8001524:	2b00      	cmp	r3, #0
 8001526:	d0ef      	beq.n	8001508 <HAL_RCC_OscConfig+0x5d8>
 8001528:	e01b      	b.n	8001562 <HAL_RCC_OscConfig+0x632>
      }
    }
    else
    {
      /* Disable the Internal Low Speed oscillator (HSI48). */
      __HAL_RCC_HSI48_DISABLE();
 800152a:	4b8f      	ldr	r3, [pc, #572]	; (8001768 <HAL_RCC_OscConfig+0x838>)
 800152c:	f8d3 3098 	ldr.w	r3, [r3, #152]	; 0x98
 8001530:	4a8d      	ldr	r2, [pc, #564]	; (8001768 <HAL_RCC_OscConfig+0x838>)
 8001532:	f023 0301 	bic.w	r3, r3, #1
 8001536:	f8c2 3098 	str.w	r3, [r2, #152]	; 0x98

      /* Get Start Tick*/
      tickstart = HAL_GetTick();
 800153a:	f7ff f995 	bl	8000868 <HAL_GetTick>
 800153e:	6138      	str	r0, [r7, #16]

      /* Wait till HSI48 is disabled */
      while(READ_BIT(RCC->CRRCR, RCC_CRRCR_HSI48RDY) != 0U)
 8001540:	e008      	b.n	8001554 <HAL_RCC_OscConfig+0x624>
      {
        if((HAL_GetTick() - tickstart) > HSI48_TIMEOUT_VALUE)
 8001542:	f7ff f991 	bl	8000868 <HAL_GetTick>
 8001546:	4602      	mov	r2, r0
 8001548:	693b      	ldr	r3, [r7, #16]
 800154a:	1ad3      	subs	r3, r2, r3
 800154c:	2b02      	cmp	r3, #2
 800154e:	d901      	bls.n	8001554 <HAL_RCC_OscConfig+0x624>
        {
          return HAL_TIMEOUT;
 8001550:	2303      	movs	r3, #3
 8001552:	e10e      	b.n	8001772 <HAL_RCC_OscConfig+0x842>
      while(READ_BIT(RCC->CRRCR, RCC_CRRCR_HSI48RDY) != 0U)
 8001554:	4b84      	ldr	r3, [pc, #528]	; (8001768 <HAL_RCC_OscConfig+0x838>)
 8001556:	f8d3 3098 	ldr.w	r3, [r3, #152]	; 0x98
 800155a:	f003 0302 	and.w	r3, r3, #2
 800155e:	2b00      	cmp	r3, #0
 8001560:	d1ef      	bne.n	8001542 <HAL_RCC_OscConfig+0x612>
#endif /* RCC_HSI48_SUPPORT */
  /*-------------------------------- PLL Configuration -----------------------*/
  /* Check the parameters */
  assert_param(IS_RCC_PLL(RCC_OscInitStruct->PLL.PLLState));

  if(RCC_OscInitStruct->PLL.PLLState != RCC_PLL_NONE)
 8001562:	687b      	ldr	r3, [r7, #4]
 8001564:	6a9b      	ldr	r3, [r3, #40]	; 0x28
 8001566:	2b00      	cmp	r3, #0
 8001568:	f000 8102 	beq.w	8001770 <HAL_RCC_OscConfig+0x840>
  {
    /* PLL On ? */
    if(RCC_OscInitStruct->PLL.PLLState == RCC_PLL_ON)
 800156c:	687b      	ldr	r3, [r7, #4]
 800156e:	6a9b      	ldr	r3, [r3, #40]	; 0x28
 8001570:	2b02      	cmp	r3, #2
 8001572:	f040 80c5 	bne.w	8001700 <HAL_RCC_OscConfig+0x7d0>
#endif /* RCC_PLLP_SUPPORT */
      assert_param(IS_RCC_PLLQ_VALUE(RCC_OscInitStruct->PLL.PLLQ));
      assert_param(IS_RCC_PLLR_VALUE(RCC_OscInitStruct->PLL.PLLR));

      /* Do nothing if PLL configuration is the unchanged */
      pll_config = RCC->PLLCFGR;
 8001576:	4b7c      	ldr	r3, [pc, #496]	; (8001768 <HAL_RCC_OscConfig+0x838>)
 8001578:	68db      	ldr	r3, [r3, #12]
 800157a:	617b      	str	r3, [r7, #20]
      if((READ_BIT(pll_config, RCC_PLLCFGR_PLLSRC)  != RCC_OscInitStruct->PLL.PLLSource) ||
 800157c:	697b      	ldr	r3, [r7, #20]
 800157e:	f003 0203 	and.w	r2, r3, #3
 8001582:	687b      	ldr	r3, [r7, #4]
 8001584:	6adb      	ldr	r3, [r3, #44]	; 0x2c
 8001586:	429a      	cmp	r2, r3
 8001588:	d12c      	bne.n	80015e4 <HAL_RCC_OscConfig+0x6b4>
         (READ_BIT(pll_config, RCC_PLLCFGR_PLLM)    != ((RCC_OscInitStruct->PLL.PLLM - 1U) << RCC_PLLCFGR_PLLM_Pos)) ||
 800158a:	697b      	ldr	r3, [r7, #20]
 800158c:	f003 0270 	and.w	r2, r3, #112	; 0x70
 8001590:	687b      	ldr	r3, [r7, #4]
 8001592:	6b1b      	ldr	r3, [r3, #48]	; 0x30
 8001594:	3b01      	subs	r3, #1
 8001596:	011b      	lsls	r3, r3, #4
      if((READ_BIT(pll_config, RCC_PLLCFGR_PLLSRC)  != RCC_OscInitStruct->PLL.PLLSource) ||
 8001598:	429a      	cmp	r2, r3
 800159a:	d123      	bne.n	80015e4 <HAL_RCC_OscConfig+0x6b4>
         (READ_BIT(pll_config, RCC_PLLCFGR_PLLN)    != (RCC_OscInitStruct->PLL.PLLN << RCC_PLLCFGR_PLLN_Pos)) ||
 800159c:	697b      	ldr	r3, [r7, #20]
 800159e:	f403 42fe 	and.w	r2, r3, #32512	; 0x7f00
 80015a2:	687b      	ldr	r3, [r7, #4]
 80015a4:	6b5b      	ldr	r3, [r3, #52]	; 0x34
 80015a6:	021b      	lsls	r3, r3, #8
         (READ_BIT(pll_config, RCC_PLLCFGR_PLLM)    != ((RCC_OscInitStruct->PLL.PLLM - 1U) << RCC_PLLCFGR_PLLM_Pos)) ||
 80015a8:	429a      	cmp	r2, r3
 80015aa:	d11b      	bne.n	80015e4 <HAL_RCC_OscConfig+0x6b4>
#if defined(RCC_PLLP_SUPPORT)
#if defined(RCC_PLLP_DIV_2_31_SUPPORT)
         (READ_BIT(pll_config, RCC_PLLCFGR_PLLPDIV) != (RCC_OscInitStruct->PLL.PLLP << RCC_PLLCFGR_PLLPDIV_Pos)) ||
 80015ac:	697b      	ldr	r3, [r7, #20]
 80015ae:	f003 4278 	and.w	r2, r3, #4160749568	; 0xf8000000
 80015b2:	687b      	ldr	r3, [r7, #4]
 80015b4:	6b9b      	ldr	r3, [r3, #56]	; 0x38
 80015b6:	06db      	lsls	r3, r3, #27
         (READ_BIT(pll_config, RCC_PLLCFGR_PLLN)    != (RCC_OscInitStruct->PLL.PLLN << RCC_PLLCFGR_PLLN_Pos)) ||
 80015b8:	429a      	cmp	r2, r3
 80015ba:	d113      	bne.n	80015e4 <HAL_RCC_OscConfig+0x6b4>
#else
         (READ_BIT(pll_config, RCC_PLLCFGR_PLLP)    != ((RCC_OscInitStruct->PLL.PLLP == RCC_PLLP_DIV7) ? 0U : 1U)) ||
#endif
#endif
         (READ_BIT(pll_config, RCC_PLLCFGR_PLLQ)    != ((((RCC_OscInitStruct->PLL.PLLQ) >> 1U) - 1U) << RCC_PLLCFGR_PLLQ_Pos)) ||
 80015bc:	697b      	ldr	r3, [r7, #20]
 80015be:	f403 02c0 	and.w	r2, r3, #6291456	; 0x600000
 80015c2:	687b      	ldr	r3, [r7, #4]
 80015c4:	6bdb      	ldr	r3, [r3, #60]	; 0x3c
 80015c6:	085b      	lsrs	r3, r3, #1
 80015c8:	3b01      	subs	r3, #1
 80015ca:	055b      	lsls	r3, r3, #21
         (READ_BIT(pll_config, RCC_PLLCFGR_PLLPDIV) != (RCC_OscInitStruct->PLL.PLLP << RCC_PLLCFGR_PLLPDIV_Pos)) ||
 80015cc:	429a      	cmp	r2, r3
 80015ce:	d109      	bne.n	80015e4 <HAL_RCC_OscConfig+0x6b4>
         (READ_BIT(pll_config, RCC_PLLCFGR_PLLR)    != ((((RCC_OscInitStruct->PLL.PLLR) >> 1U) - 1U) << RCC_PLLCFGR_PLLR_Pos)))
 80015d0:	697b      	ldr	r3, [r7, #20]
 80015d2:	f003 62c0 	and.w	r2, r3, #100663296	; 0x6000000
 80015d6:	687b      	ldr	r3, [r7, #4]
 80015d8:	6c1b      	ldr	r3, [r3, #64]	; 0x40
 80015da:	085b      	lsrs	r3, r3, #1
 80015dc:	3b01      	subs	r3, #1
 80015de:	065b      	lsls	r3, r3, #25
         (READ_BIT(pll_config, RCC_PLLCFGR_PLLQ)    != ((((RCC_OscInitStruct->PLL.PLLQ) >> 1U) - 1U) << RCC_PLLCFGR_PLLQ_Pos)) ||
 80015e0:	429a      	cmp	r2, r3
 80015e2:	d067      	beq.n	80016b4 <HAL_RCC_OscConfig+0x784>
      {
        /* Check if the PLL is used as system clock or not */
        if(sysclk_source != RCC_CFGR_SWS_PLL)
 80015e4:	69bb      	ldr	r3, [r7, #24]
 80015e6:	2b0c      	cmp	r3, #12
 80015e8:	d062      	beq.n	80016b0 <HAL_RCC_OscConfig+0x780>
        {
#if defined(RCC_PLLSAI1_SUPPORT) || defined(RCC_PLLSAI2_SUPPORT)
          /* Check if main PLL can be updated */
          /* Not possible if the source is shared by other enabled PLLSAIx */
          if((READ_BIT(RCC->CR, RCC_CR_PLLSAI1ON) != 0U)
 80015ea:	4b5f      	ldr	r3, [pc, #380]	; (8001768 <HAL_RCC_OscConfig+0x838>)
 80015ec:	681b      	ldr	r3, [r3, #0]
 80015ee:	f003 6380 	and.w	r3, r3, #67108864	; 0x4000000
 80015f2:	2b00      	cmp	r3, #0
 80015f4:	d001      	beq.n	80015fa <HAL_RCC_OscConfig+0x6ca>
#if defined(RCC_PLLSAI2_SUPPORT)
             || (READ_BIT(RCC->CR, RCC_CR_PLLSAI2ON) != 0U)
#endif
            )
          {
            return HAL_ERROR;
 80015f6:	2301      	movs	r3, #1
 80015f8:	e0bb      	b.n	8001772 <HAL_RCC_OscConfig+0x842>
          }
          else
#endif /* RCC_PLLSAI1_SUPPORT || RCC_PLLSAI2_SUPPORT */
          {
            /* Disable the main PLL. */
            __HAL_RCC_PLL_DISABLE();
 80015fa:	4b5b      	ldr	r3, [pc, #364]	; (8001768 <HAL_RCC_OscConfig+0x838>)
 80015fc:	681b      	ldr	r3, [r3, #0]
 80015fe:	4a5a      	ldr	r2, [pc, #360]	; (8001768 <HAL_RCC_OscConfig+0x838>)
 8001600:	f023 7380 	bic.w	r3, r3, #16777216	; 0x1000000
 8001604:	6013      	str	r3, [r2, #0]

            /* Get Start Tick*/
            tickstart = HAL_GetTick();
 8001606:	f7ff f92f 	bl	8000868 <HAL_GetTick>
 800160a:	6138      	str	r0, [r7, #16]

            /* Wait till PLL is ready */
            while(READ_BIT(RCC->CR, RCC_CR_PLLRDY) != 0U)
 800160c:	e008      	b.n	8001620 <HAL_RCC_OscConfig+0x6f0>
            {
              if((HAL_GetTick() - tickstart) > PLL_TIMEOUT_VALUE)
 800160e:	f7ff f92b 	bl	8000868 <HAL_GetTick>
 8001612:	4602      	mov	r2, r0
 8001614:	693b      	ldr	r3, [r7, #16]
 8001616:	1ad3      	subs	r3, r2, r3
 8001618:	2b02      	cmp	r3, #2
 800161a:	d901      	bls.n	8001620 <HAL_RCC_OscConfig+0x6f0>
              {
                return HAL_TIMEOUT;
 800161c:	2303      	movs	r3, #3
 800161e:	e0a8      	b.n	8001772 <HAL_RCC_OscConfig+0x842>
            while(READ_BIT(RCC->CR, RCC_CR_PLLRDY) != 0U)
 8001620:	4b51      	ldr	r3, [pc, #324]	; (8001768 <HAL_RCC_OscConfig+0x838>)
 8001622:	681b      	ldr	r3, [r3, #0]
 8001624:	f003 7300 	and.w	r3, r3, #33554432	; 0x2000000
 8001628:	2b00      	cmp	r3, #0
 800162a:	d1f0      	bne.n	800160e <HAL_RCC_OscConfig+0x6de>
              }
            }

            /* Configure the main PLL clock source, multiplication and division factors. */
            __HAL_RCC_PLL_CONFIG(RCC_OscInitStruct->PLL.PLLSource,
 800162c:	4b4e      	ldr	r3, [pc, #312]	; (8001768 <HAL_RCC_OscConfig+0x838>)
 800162e:	68da      	ldr	r2, [r3, #12]
 8001630:	4b4e      	ldr	r3, [pc, #312]	; (800176c <HAL_RCC_OscConfig+0x83c>)
 8001632:	4013      	ands	r3, r2
 8001634:	687a      	ldr	r2, [r7, #4]
 8001636:	6ad1      	ldr	r1, [r2, #44]	; 0x2c
 8001638:	687a      	ldr	r2, [r7, #4]
 800163a:	6b12      	ldr	r2, [r2, #48]	; 0x30
 800163c:	3a01      	subs	r2, #1
 800163e:	0112      	lsls	r2, r2, #4
 8001640:	4311      	orrs	r1, r2
 8001642:	687a      	ldr	r2, [r7, #4]
 8001644:	6b52      	ldr	r2, [r2, #52]	; 0x34
 8001646:	0212      	lsls	r2, r2, #8
 8001648:	4311      	orrs	r1, r2
 800164a:	687a      	ldr	r2, [r7, #4]
 800164c:	6bd2      	ldr	r2, [r2, #60]	; 0x3c
 800164e:	0852      	lsrs	r2, r2, #1
 8001650:	3a01      	subs	r2, #1
 8001652:	0552      	lsls	r2, r2, #21
 8001654:	4311      	orrs	r1, r2
 8001656:	687a      	ldr	r2, [r7, #4]
 8001658:	6c12      	ldr	r2, [r2, #64]	; 0x40
 800165a:	0852      	lsrs	r2, r2, #1
 800165c:	3a01      	subs	r2, #1
 800165e:	0652      	lsls	r2, r2, #25
 8001660:	4311      	orrs	r1, r2
 8001662:	687a      	ldr	r2, [r7, #4]
 8001664:	6b92      	ldr	r2, [r2, #56]	; 0x38
 8001666:	06d2      	lsls	r2, r2, #27
 8001668:	430a      	orrs	r2, r1
 800166a:	493f      	ldr	r1, [pc, #252]	; (8001768 <HAL_RCC_OscConfig+0x838>)
 800166c:	4313      	orrs	r3, r2
 800166e:	60cb      	str	r3, [r1, #12]
#endif
                                 RCC_OscInitStruct->PLL.PLLQ,
                                 RCC_OscInitStruct->PLL.PLLR);

            /* Enable the main PLL. */
            __HAL_RCC_PLL_ENABLE();
 8001670:	4b3d      	ldr	r3, [pc, #244]	; (8001768 <HAL_RCC_OscConfig+0x838>)
 8001672:	681b      	ldr	r3, [r3, #0]
 8001674:	4a3c      	ldr	r2, [pc, #240]	; (8001768 <HAL_RCC_OscConfig+0x838>)
 8001676:	f043 7380 	orr.w	r3, r3, #16777216	; 0x1000000
 800167a:	6013      	str	r3, [r2, #0]

            /* Enable PLL System Clock output. */
            __HAL_RCC_PLLCLKOUT_ENABLE(RCC_PLL_SYSCLK);
 800167c:	4b3a      	ldr	r3, [pc, #232]	; (8001768 <HAL_RCC_OscConfig+0x838>)
 800167e:	68db      	ldr	r3, [r3, #12]
 8001680:	4a39      	ldr	r2, [pc, #228]	; (8001768 <HAL_RCC_OscConfig+0x838>)
 8001682:	f043 7380 	orr.w	r3, r3, #16777216	; 0x1000000
 8001686:	60d3      	str	r3, [r2, #12]

            /* Get Start Tick*/
            tickstart = HAL_GetTick();
 8001688:	f7ff f8ee 	bl	8000868 <HAL_GetTick>
 800168c:	6138      	str	r0, [r7, #16]

            /* Wait till PLL is ready */
            while(READ_BIT(RCC->CR, RCC_CR_PLLRDY) == 0U)
 800168e:	e008      	b.n	80016a2 <HAL_RCC_OscConfig+0x772>
            {
              if((HAL_GetTick() - tickstart) > PLL_TIMEOUT_VALUE)
 8001690:	f7ff f8ea 	bl	8000868 <HAL_GetTick>
 8001694:	4602      	mov	r2, r0
 8001696:	693b      	ldr	r3, [r7, #16]
 8001698:	1ad3      	subs	r3, r2, r3
 800169a:	2b02      	cmp	r3, #2
 800169c:	d901      	bls.n	80016a2 <HAL_RCC_OscConfig+0x772>
              {
                return HAL_TIMEOUT;
 800169e:	2303      	movs	r3, #3
 80016a0:	e067      	b.n	8001772 <HAL_RCC_OscConfig+0x842>
            while(READ_BIT(RCC->CR, RCC_CR_PLLRDY) == 0U)
 80016a2:	4b31      	ldr	r3, [pc, #196]	; (8001768 <HAL_RCC_OscConfig+0x838>)
 80016a4:	681b      	ldr	r3, [r3, #0]
 80016a6:	f003 7300 	and.w	r3, r3, #33554432	; 0x2000000
 80016aa:	2b00      	cmp	r3, #0
 80016ac:	d0f0      	beq.n	8001690 <HAL_RCC_OscConfig+0x760>
        if(sysclk_source != RCC_CFGR_SWS_PLL)
 80016ae:	e05f      	b.n	8001770 <HAL_RCC_OscConfig+0x840>
          }
        }
        else
        {
          /* PLL is already used as System core clock */
          return HAL_ERROR;
 80016b0:	2301      	movs	r3, #1
 80016b2:	e05e      	b.n	8001772 <HAL_RCC_OscConfig+0x842>
      }
      else
      {
        /* PLL configuration is unchanged */
        /* Re-enable PLL if it was disabled (ie. low power mode) */
        if(READ_BIT(RCC->CR, RCC_CR_PLLRDY) == 0U)
 80016b4:	4b2c      	ldr	r3, [pc, #176]	; (8001768 <HAL_RCC_OscConfig+0x838>)
 80016b6:	681b      	ldr	r3, [r3, #0]
 80016b8:	f003 7300 	and.w	r3, r3, #33554432	; 0x2000000
 80016bc:	2b00      	cmp	r3, #0
 80016be:	d157      	bne.n	8001770 <HAL_RCC_OscConfig+0x840>
        {
          /* Enable the main PLL. */
          __HAL_RCC_PLL_ENABLE();
 80016c0:	4b29      	ldr	r3, [pc, #164]	; (8001768 <HAL_RCC_OscConfig+0x838>)
 80016c2:	681b      	ldr	r3, [r3, #0]
 80016c4:	4a28      	ldr	r2, [pc, #160]	; (8001768 <HAL_RCC_OscConfig+0x838>)
 80016c6:	f043 7380 	orr.w	r3, r3, #16777216	; 0x1000000
 80016ca:	6013      	str	r3, [r2, #0]

          /* Enable PLL System Clock output. */
          __HAL_RCC_PLLCLKOUT_ENABLE(RCC_PLL_SYSCLK);
 80016cc:	4b26      	ldr	r3, [pc, #152]	; (8001768 <HAL_RCC_OscConfig+0x838>)
 80016ce:	68db      	ldr	r3, [r3, #12]
 80016d0:	4a25      	ldr	r2, [pc, #148]	; (8001768 <HAL_RCC_OscConfig+0x838>)
 80016d2:	f043 7380 	orr.w	r3, r3, #16777216	; 0x1000000
 80016d6:	60d3      	str	r3, [r2, #12]

          /* Get Start Tick*/
          tickstart = HAL_GetTick();
 80016d8:	f7ff f8c6 	bl	8000868 <HAL_GetTick>
 80016dc:	6138      	str	r0, [r7, #16]

          /* Wait till PLL is ready */
          while(READ_BIT(RCC->CR, RCC_CR_PLLRDY) == 0U)
 80016de:	e008      	b.n	80016f2 <HAL_RCC_OscConfig+0x7c2>
          {
            if((HAL_GetTick() - tickstart) > PLL_TIMEOUT_VALUE)
 80016e0:	f7ff f8c2 	bl	8000868 <HAL_GetTick>
 80016e4:	4602      	mov	r2, r0
 80016e6:	693b      	ldr	r3, [r7, #16]
 80016e8:	1ad3      	subs	r3, r2, r3
 80016ea:	2b02      	cmp	r3, #2
 80016ec:	d901      	bls.n	80016f2 <HAL_RCC_OscConfig+0x7c2>
            {
              return HAL_TIMEOUT;
 80016ee:	2303      	movs	r3, #3
 80016f0:	e03f      	b.n	8001772 <HAL_RCC_OscConfig+0x842>
          while(READ_BIT(RCC->CR, RCC_CR_PLLRDY) == 0U)
 80016f2:	4b1d      	ldr	r3, [pc, #116]	; (8001768 <HAL_RCC_OscConfig+0x838>)
 80016f4:	681b      	ldr	r3, [r3, #0]
 80016f6:	f003 7300 	and.w	r3, r3, #33554432	; 0x2000000
 80016fa:	2b00      	cmp	r3, #0
 80016fc:	d0f0      	beq.n	80016e0 <HAL_RCC_OscConfig+0x7b0>
 80016fe:	e037      	b.n	8001770 <HAL_RCC_OscConfig+0x840>
      }
    }
    else
    {
      /* Check that PLL is not used as system clock or not */
      if(sysclk_source != RCC_CFGR_SWS_PLL)
 8001700:	69bb      	ldr	r3, [r7, #24]
 8001702:	2b0c      	cmp	r3, #12
 8001704:	d02d      	beq.n	8001762 <HAL_RCC_OscConfig+0x832>
      {
        /* Disable the main PLL. */
        __HAL_RCC_PLL_DISABLE();
 8001706:	4b18      	ldr	r3, [pc, #96]	; (8001768 <HAL_RCC_OscConfig+0x838>)
 8001708:	681b      	ldr	r3, [r3, #0]
 800170a:	4a17      	ldr	r2, [pc, #92]	; (8001768 <HAL_RCC_OscConfig+0x838>)
 800170c:	f023 7380 	bic.w	r3, r3, #16777216	; 0x1000000
 8001710:	6013      	str	r3, [r2, #0]
        if(READ_BIT(RCC->CR, (RCC_CR_PLLSAI1RDY | RCC_CR_PLLSAI2RDY)) == 0U)
        {
          MODIFY_REG(RCC->PLLCFGR, RCC_PLLCFGR_PLLSRC, RCC_PLLSOURCE_NONE);
        }
#elif defined(RCC_PLLSAI1_SUPPORT)
        if(READ_BIT(RCC->CR, RCC_CR_PLLSAI1RDY) == 0U)
 8001712:	4b15      	ldr	r3, [pc, #84]	; (8001768 <HAL_RCC_OscConfig+0x838>)
 8001714:	681b      	ldr	r3, [r3, #0]
 8001716:	f003 6300 	and.w	r3, r3, #134217728	; 0x8000000
 800171a:	2b00      	cmp	r3, #0
 800171c:	d105      	bne.n	800172a <HAL_RCC_OscConfig+0x7fa>
        {
          MODIFY_REG(RCC->PLLCFGR, RCC_PLLCFGR_PLLSRC, RCC_PLLSOURCE_NONE);
 800171e:	4b12      	ldr	r3, [pc, #72]	; (8001768 <HAL_RCC_OscConfig+0x838>)
 8001720:	68db      	ldr	r3, [r3, #12]
 8001722:	4a11      	ldr	r2, [pc, #68]	; (8001768 <HAL_RCC_OscConfig+0x838>)
 8001724:	f023 0303 	bic.w	r3, r3, #3
 8001728:	60d3      	str	r3, [r2, #12]
#endif /* RCC_PLLSAI1_SUPPORT && RCC_CR_PLLSAI2RDY */

#if defined(RCC_PLLSAI2_SUPPORT)
        __HAL_RCC_PLLCLKOUT_DISABLE(RCC_PLL_SYSCLK | RCC_PLL_48M1CLK | RCC_PLL_SAI3CLK);
#elif defined(RCC_PLLSAI1_SUPPORT)
        __HAL_RCC_PLLCLKOUT_DISABLE(RCC_PLL_SYSCLK | RCC_PLL_48M1CLK | RCC_PLL_SAI2CLK);
 800172a:	4b0f      	ldr	r3, [pc, #60]	; (8001768 <HAL_RCC_OscConfig+0x838>)
 800172c:	68db      	ldr	r3, [r3, #12]
 800172e:	4a0e      	ldr	r2, [pc, #56]	; (8001768 <HAL_RCC_OscConfig+0x838>)
 8001730:	f023 7388 	bic.w	r3, r3, #17825792	; 0x1100000
 8001734:	f423 3380 	bic.w	r3, r3, #65536	; 0x10000
 8001738:	60d3      	str	r3, [r2, #12]
#else
        __HAL_RCC_PLLCLKOUT_DISABLE(RCC_PLL_SYSCLK | RCC_PLL_48M1CLK);
#endif /* RCC_PLLSAI2_SUPPORT */

        /* Get Start Tick*/
        tickstart = HAL_GetTick();
 800173a:	f7ff f895 	bl	8000868 <HAL_GetTick>
 800173e:	6138      	str	r0, [r7, #16]

        /* Wait till PLL is disabled */
        while(READ_BIT(RCC->CR, RCC_CR_PLLRDY) != 0U)
 8001740:	e008      	b.n	8001754 <HAL_RCC_OscConfig+0x824>
        {
          if((HAL_GetTick() - tickstart) > PLL_TIMEOUT_VALUE)
 8001742:	f7ff f891 	bl	8000868 <HAL_GetTick>
 8001746:	4602      	mov	r2, r0
 8001748:	693b      	ldr	r3, [r7, #16]
 800174a:	1ad3      	subs	r3, r2, r3
 800174c:	2b02      	cmp	r3, #2
 800174e:	d901      	bls.n	8001754 <HAL_RCC_OscConfig+0x824>
          {
            return HAL_TIMEOUT;
 8001750:	2303      	movs	r3, #3
 8001752:	e00e      	b.n	8001772 <HAL_RCC_OscConfig+0x842>
        while(READ_BIT(RCC->CR, RCC_CR_PLLRDY) != 0U)
 8001754:	4b04      	ldr	r3, [pc, #16]	; (8001768 <HAL_RCC_OscConfig+0x838>)
 8001756:	681b      	ldr	r3, [r3, #0]
 8001758:	f003 7300 	and.w	r3, r3, #33554432	; 0x2000000
 800175c:	2b00      	cmp	r3, #0
 800175e:	d1f0      	bne.n	8001742 <HAL_RCC_OscConfig+0x812>
 8001760:	e006      	b.n	8001770 <HAL_RCC_OscConfig+0x840>
        }
      }
      else
      {
        /* PLL is already used as System core clock */
        return HAL_ERROR;
 8001762:	2301      	movs	r3, #1
 8001764:	e005      	b.n	8001772 <HAL_RCC_OscConfig+0x842>
 8001766:	bf00      	nop
 8001768:	40021000 	.word	0x40021000
 800176c:	019d808c 	.word	0x019d808c
      }
    }
  }
  return HAL_OK;
 8001770:	2300      	movs	r3, #0
}
 8001772:	4618      	mov	r0, r3
 8001774:	3720      	adds	r7, #32
 8001776:	46bd      	mov	sp, r7
 8001778:	bd80      	pop	{r7, pc}
 800177a:	bf00      	nop

0800177c <HAL_RCC_ClockConfig>:
  *         HPRE[3:0] bits to ensure that HCLK not exceed the maximum allowed frequency
  *         (for more details refer to section above "Initialization/de-initialization functions")
  * @retval None
  */
HAL_StatusTypeDef HAL_RCC_ClockConfig(RCC_ClkInitTypeDef  *RCC_ClkInitStruct, uint32_t FLatency)
{
 800177c:	b580      	push	{r7, lr}
 800177e:	b084      	sub	sp, #16
 8001780:	af00      	add	r7, sp, #0
 8001782:	6078      	str	r0, [r7, #4]
 8001784:	6039      	str	r1, [r7, #0]
  uint32_t hpre = RCC_SYSCLK_DIV1;
#endif
  HAL_StatusTypeDef status;

  /* Check Null pointer */
  if(RCC_ClkInitStruct == NULL)
 8001786:	687b      	ldr	r3, [r7, #4]
 8001788:	2b00      	cmp	r3, #0
 800178a:	d101      	bne.n	8001790 <HAL_RCC_ClockConfig+0x14>
  {
    return HAL_ERROR;
 800178c:	2301      	movs	r3, #1
 800178e:	e0ce      	b.n	800192e <HAL_RCC_ClockConfig+0x1b2>
  /* To correctly read data from FLASH memory, the number of wait states (LATENCY)
    must be correctly programmed according to the frequency of the CPU clock
    (HCLK) and the supply voltage of the device. */

  /* Increasing the number of wait states because of higher CPU frequency */
  if(FLatency > __HAL_FLASH_GET_LATENCY())
 8001790:	4b69      	ldr	r3, [pc, #420]	; (8001938 <HAL_RCC_ClockConfig+0x1bc>)
 8001792:	681b      	ldr	r3, [r3, #0]
 8001794:	f003 0307 	and.w	r3, r3, #7
 8001798:	683a      	ldr	r2, [r7, #0]
 800179a:	429a      	cmp	r2, r3
 800179c:	d910      	bls.n	80017c0 <HAL_RCC_ClockConfig+0x44>
  {
    /* Program the new number of wait states to the LATENCY bits in the FLASH_ACR register */
    __HAL_FLASH_SET_LATENCY(FLatency);
 800179e:	4b66      	ldr	r3, [pc, #408]	; (8001938 <HAL_RCC_ClockConfig+0x1bc>)
 80017a0:	681b      	ldr	r3, [r3, #0]
 80017a2:	f023 0207 	bic.w	r2, r3, #7
 80017a6:	4964      	ldr	r1, [pc, #400]	; (8001938 <HAL_RCC_ClockConfig+0x1bc>)
 80017a8:	683b      	ldr	r3, [r7, #0]
 80017aa:	4313      	orrs	r3, r2
 80017ac:	600b      	str	r3, [r1, #0]

    /* Check that the new number of wait states is taken into account to access the Flash
    memory by reading the FLASH_ACR register */
    if(__HAL_FLASH_GET_LATENCY() != FLatency)
 80017ae:	4b62      	ldr	r3, [pc, #392]	; (8001938 <HAL_RCC_ClockConfig+0x1bc>)
 80017b0:	681b      	ldr	r3, [r3, #0]
 80017b2:	f003 0307 	and.w	r3, r3, #7
 80017b6:	683a      	ldr	r2, [r7, #0]
 80017b8:	429a      	cmp	r2, r3
 80017ba:	d001      	beq.n	80017c0 <HAL_RCC_ClockConfig+0x44>
    {
      return HAL_ERROR;
 80017bc:	2301      	movs	r3, #1
 80017be:	e0b6      	b.n	800192e <HAL_RCC_ClockConfig+0x1b2>
    }
  }

  /*------------------------- SYSCLK Configuration ---------------------------*/
  if(((RCC_ClkInitStruct->ClockType) & RCC_CLOCKTYPE_SYSCLK) == RCC_CLOCKTYPE_SYSCLK)
 80017c0:	687b      	ldr	r3, [r7, #4]
 80017c2:	681b      	ldr	r3, [r3, #0]
 80017c4:	f003 0301 	and.w	r3, r3, #1
 80017c8:	2b00      	cmp	r3, #0
 80017ca:	d04c      	beq.n	8001866 <HAL_RCC_ClockConfig+0xea>
  {
    assert_param(IS_RCC_SYSCLKSOURCE(RCC_ClkInitStruct->SYSCLKSource));

    /* PLL is selected as System Clock Source */
    if(RCC_ClkInitStruct->SYSCLKSource == RCC_SYSCLKSOURCE_PLLCLK)
 80017cc:	687b      	ldr	r3, [r7, #4]
 80017ce:	685b      	ldr	r3, [r3, #4]
 80017d0:	2b03      	cmp	r3, #3
 80017d2:	d107      	bne.n	80017e4 <HAL_RCC_ClockConfig+0x68>
    {
      /* Check the PLL ready flag */
      if(READ_BIT(RCC->CR, RCC_CR_PLLRDY) == 0U)
 80017d4:	4b59      	ldr	r3, [pc, #356]	; (800193c <HAL_RCC_ClockConfig+0x1c0>)
 80017d6:	681b      	ldr	r3, [r3, #0]
 80017d8:	f003 7300 	and.w	r3, r3, #33554432	; 0x2000000
 80017dc:	2b00      	cmp	r3, #0
 80017de:	d121      	bne.n	8001824 <HAL_RCC_ClockConfig+0xa8>
      {
        return HAL_ERROR;
 80017e0:	2301      	movs	r3, #1
 80017e2:	e0a4      	b.n	800192e <HAL_RCC_ClockConfig+0x1b2>
#endif
    }
    else
    {
      /* HSE is selected as System Clock Source */
      if(RCC_ClkInitStruct->SYSCLKSource == RCC_SYSCLKSOURCE_HSE)
 80017e4:	687b      	ldr	r3, [r7, #4]
 80017e6:	685b      	ldr	r3, [r3, #4]
 80017e8:	2b02      	cmp	r3, #2
 80017ea:	d107      	bne.n	80017fc <HAL_RCC_ClockConfig+0x80>
      {
        /* Check the HSE ready flag */
        if(READ_BIT(RCC->CR, RCC_CR_HSERDY) == 0U)
 80017ec:	4b53      	ldr	r3, [pc, #332]	; (800193c <HAL_RCC_ClockConfig+0x1c0>)
 80017ee:	681b      	ldr	r3, [r3, #0]
 80017f0:	f403 3300 	and.w	r3, r3, #131072	; 0x20000
 80017f4:	2b00      	cmp	r3, #0
 80017f6:	d115      	bne.n	8001824 <HAL_RCC_ClockConfig+0xa8>
        {
          return HAL_ERROR;
 80017f8:	2301      	movs	r3, #1
 80017fa:	e098      	b.n	800192e <HAL_RCC_ClockConfig+0x1b2>
        }
      }
      /* MSI is selected as System Clock Source */
      else if(RCC_ClkInitStruct->SYSCLKSource == RCC_SYSCLKSOURCE_MSI)
 80017fc:	687b      	ldr	r3, [r7, #4]
 80017fe:	685b      	ldr	r3, [r3, #4]
 8001800:	2b00      	cmp	r3, #0
 8001802:	d107      	bne.n	8001814 <HAL_RCC_ClockConfig+0x98>
      {
        /* Check the MSI ready flag */
        if(READ_BIT(RCC->CR, RCC_CR_MSIRDY) == 0U)
 8001804:	4b4d      	ldr	r3, [pc, #308]	; (800193c <HAL_RCC_ClockConfig+0x1c0>)
 8001806:	681b      	ldr	r3, [r3, #0]
 8001808:	f003 0302 	and.w	r3, r3, #2
 800180c:	2b00      	cmp	r3, #0
 800180e:	d109      	bne.n	8001824 <HAL_RCC_ClockConfig+0xa8>
        {
          return HAL_ERROR;
 8001810:	2301      	movs	r3, #1
 8001812:	e08c      	b.n	800192e <HAL_RCC_ClockConfig+0x1b2>
      }
      /* HSI is selected as System Clock Source */
      else
      {
        /* Check the HSI ready flag */
        if(READ_BIT(RCC->CR, RCC_CR_HSIRDY) == 0U)
 8001814:	4b49      	ldr	r3, [pc, #292]	; (800193c <HAL_RCC_ClockConfig+0x1c0>)
 8001816:	681b      	ldr	r3, [r3, #0]
 8001818:	f403 6380 	and.w	r3, r3, #1024	; 0x400
 800181c:	2b00      	cmp	r3, #0
 800181e:	d101      	bne.n	8001824 <HAL_RCC_ClockConfig+0xa8>
        {
          return HAL_ERROR;
 8001820:	2301      	movs	r3, #1
 8001822:	e084      	b.n	800192e <HAL_RCC_ClockConfig+0x1b2>
      }
#endif

    }

    MODIFY_REG(RCC->CFGR, RCC_CFGR_SW, RCC_ClkInitStruct->SYSCLKSource);
 8001824:	4b45      	ldr	r3, [pc, #276]	; (800193c <HAL_RCC_ClockConfig+0x1c0>)
 8001826:	689b      	ldr	r3, [r3, #8]
 8001828:	f023 0203 	bic.w	r2, r3, #3
 800182c:	687b      	ldr	r3, [r7, #4]
 800182e:	685b      	ldr	r3, [r3, #4]
 8001830:	4942      	ldr	r1, [pc, #264]	; (800193c <HAL_RCC_ClockConfig+0x1c0>)
 8001832:	4313      	orrs	r3, r2
 8001834:	608b      	str	r3, [r1, #8]

    /* Get Start Tick*/
    tickstart = HAL_GetTick();
 8001836:	f7ff f817 	bl	8000868 <HAL_GetTick>
 800183a:	60f8      	str	r0, [r7, #12]

    while(__HAL_RCC_GET_SYSCLK_SOURCE() != (RCC_ClkInitStruct->SYSCLKSource << RCC_CFGR_SWS_Pos))
 800183c:	e00a      	b.n	8001854 <HAL_RCC_ClockConfig+0xd8>
    {
      if((HAL_GetTick() - tickstart) > CLOCKSWITCH_TIMEOUT_VALUE)
 800183e:	f7ff f813 	bl	8000868 <HAL_GetTick>
 8001842:	4602      	mov	r2, r0
 8001844:	68fb      	ldr	r3, [r7, #12]
 8001846:	1ad3      	subs	r3, r2, r3
 8001848:	f241 3288 	movw	r2, #5000	; 0x1388
 800184c:	4293      	cmp	r3, r2
 800184e:	d901      	bls.n	8001854 <HAL_RCC_ClockConfig+0xd8>
      {
        return HAL_TIMEOUT;
 8001850:	2303      	movs	r3, #3
 8001852:	e06c      	b.n	800192e <HAL_RCC_ClockConfig+0x1b2>
    while(__HAL_RCC_GET_SYSCLK_SOURCE() != (RCC_ClkInitStruct->SYSCLKSource << RCC_CFGR_SWS_Pos))
 8001854:	4b39      	ldr	r3, [pc, #228]	; (800193c <HAL_RCC_ClockConfig+0x1c0>)
 8001856:	689b      	ldr	r3, [r3, #8]
 8001858:	f003 020c 	and.w	r2, r3, #12
 800185c:	687b      	ldr	r3, [r7, #4]
 800185e:	685b      	ldr	r3, [r3, #4]
 8001860:	009b      	lsls	r3, r3, #2
 8001862:	429a      	cmp	r2, r3
 8001864:	d1eb      	bne.n	800183e <HAL_RCC_ClockConfig+0xc2>
      }
    }
  }

  /*-------------------------- HCLK Configuration --------------------------*/
  if(((RCC_ClkInitStruct->ClockType) & RCC_CLOCKTYPE_HCLK) == RCC_CLOCKTYPE_HCLK)
 8001866:	687b      	ldr	r3, [r7, #4]
 8001868:	681b      	ldr	r3, [r3, #0]
 800186a:	f003 0302 	and.w	r3, r3, #2
 800186e:	2b00      	cmp	r3, #0
 8001870:	d008      	beq.n	8001884 <HAL_RCC_ClockConfig+0x108>
  {
    assert_param(IS_RCC_HCLK(RCC_ClkInitStruct->AHBCLKDivider));
    MODIFY_REG(RCC->CFGR, RCC_CFGR_HPRE, RCC_ClkInitStruct->AHBCLKDivider);
 8001872:	4b32      	ldr	r3, [pc, #200]	; (800193c <HAL_RCC_ClockConfig+0x1c0>)
 8001874:	689b      	ldr	r3, [r3, #8]
 8001876:	f023 02f0 	bic.w	r2, r3, #240	; 0xf0
 800187a:	687b      	ldr	r3, [r7, #4]
 800187c:	689b      	ldr	r3, [r3, #8]
 800187e:	492f      	ldr	r1, [pc, #188]	; (800193c <HAL_RCC_ClockConfig+0x1c0>)
 8001880:	4313      	orrs	r3, r2
 8001882:	608b      	str	r3, [r1, #8]
    }
  }
#endif

  /* Decreasing the number of wait states because of lower CPU frequency */
  if(FLatency < __HAL_FLASH_GET_LATENCY())
 8001884:	4b2c      	ldr	r3, [pc, #176]	; (8001938 <HAL_RCC_ClockConfig+0x1bc>)
 8001886:	681b      	ldr	r3, [r3, #0]
 8001888:	f003 0307 	and.w	r3, r3, #7
 800188c:	683a      	ldr	r2, [r7, #0]
 800188e:	429a      	cmp	r2, r3
 8001890:	d210      	bcs.n	80018b4 <HAL_RCC_ClockConfig+0x138>
  {
    /* Program the new number of wait states to the LATENCY bits in the FLASH_ACR register */
    __HAL_FLASH_SET_LATENCY(FLatency);
 8001892:	4b29      	ldr	r3, [pc, #164]	; (8001938 <HAL_RCC_ClockConfig+0x1bc>)
 8001894:	681b      	ldr	r3, [r3, #0]
 8001896:	f023 0207 	bic.w	r2, r3, #7
 800189a:	4927      	ldr	r1, [pc, #156]	; (8001938 <HAL_RCC_ClockConfig+0x1bc>)
 800189c:	683b      	ldr	r3, [r7, #0]
 800189e:	4313      	orrs	r3, r2
 80018a0:	600b      	str	r3, [r1, #0]

    /* Check that the new number of wait states is taken into account to access the Flash
    memory by reading the FLASH_ACR register */
    if(__HAL_FLASH_GET_LATENCY() != FLatency)
 80018a2:	4b25      	ldr	r3, [pc, #148]	; (8001938 <HAL_RCC_ClockConfig+0x1bc>)
 80018a4:	681b      	ldr	r3, [r3, #0]
 80018a6:	f003 0307 	and.w	r3, r3, #7
 80018aa:	683a      	ldr	r2, [r7, #0]
 80018ac:	429a      	cmp	r2, r3
 80018ae:	d001      	beq.n	80018b4 <HAL_RCC_ClockConfig+0x138>
    {
      return HAL_ERROR;
 80018b0:	2301      	movs	r3, #1
 80018b2:	e03c      	b.n	800192e <HAL_RCC_ClockConfig+0x1b2>
    }
  }

  /*-------------------------- PCLK1 Configuration ---------------------------*/
  if(((RCC_ClkInitStruct->ClockType) & RCC_CLOCKTYPE_PCLK1) == RCC_CLOCKTYPE_PCLK1)
 80018b4:	687b      	ldr	r3, [r7, #4]
 80018b6:	681b      	ldr	r3, [r3, #0]
 80018b8:	f003 0304 	and.w	r3, r3, #4
 80018bc:	2b00      	cmp	r3, #0
 80018be:	d008      	beq.n	80018d2 <HAL_RCC_ClockConfig+0x156>
  {
    assert_param(IS_RCC_PCLK(RCC_ClkInitStruct->APB1CLKDivider));
    MODIFY_REG(RCC->CFGR, RCC_CFGR_PPRE1, RCC_ClkInitStruct->APB1CLKDivider);
 80018c0:	4b1e      	ldr	r3, [pc, #120]	; (800193c <HAL_RCC_ClockConfig+0x1c0>)
 80018c2:	689b      	ldr	r3, [r3, #8]
 80018c4:	f423 62e0 	bic.w	r2, r3, #1792	; 0x700
 80018c8:	687b      	ldr	r3, [r7, #4]
 80018ca:	68db      	ldr	r3, [r3, #12]
 80018cc:	491b      	ldr	r1, [pc, #108]	; (800193c <HAL_RCC_ClockConfig+0x1c0>)
 80018ce:	4313      	orrs	r3, r2
 80018d0:	608b      	str	r3, [r1, #8]
  }

  /*-------------------------- PCLK2 Configuration ---------------------------*/
  if(((RCC_ClkInitStruct->ClockType) & RCC_CLOCKTYPE_PCLK2) == RCC_CLOCKTYPE_PCLK2)
 80018d2:	687b      	ldr	r3, [r7, #4]
 80018d4:	681b      	ldr	r3, [r3, #0]
 80018d6:	f003 0308 	and.w	r3, r3, #8
 80018da:	2b00      	cmp	r3, #0
 80018dc:	d009      	beq.n	80018f2 <HAL_RCC_ClockConfig+0x176>
  {
    assert_param(IS_RCC_PCLK(RCC_ClkInitStruct->APB2CLKDivider));
    MODIFY_REG(RCC->CFGR, RCC_CFGR_PPRE2, ((RCC_ClkInitStruct->APB2CLKDivider) << 3U));
 80018de:	4b17      	ldr	r3, [pc, #92]	; (800193c <HAL_RCC_ClockConfig+0x1c0>)
 80018e0:	689b      	ldr	r3, [r3, #8]
 80018e2:	f423 5260 	bic.w	r2, r3, #14336	; 0x3800
 80018e6:	687b      	ldr	r3, [r7, #4]
 80018e8:	691b      	ldr	r3, [r3, #16]
 80018ea:	00db      	lsls	r3, r3, #3
 80018ec:	4913      	ldr	r1, [pc, #76]	; (800193c <HAL_RCC_ClockConfig+0x1c0>)
 80018ee:	4313      	orrs	r3, r2
 80018f0:	608b      	str	r3, [r1, #8]
  }

  /* Update the SystemCoreClock global variable */
  SystemCoreClock = HAL_RCC_GetSysClockFreq() >> (AHBPrescTable[READ_BIT(RCC->CFGR, RCC_CFGR_HPRE) >> RCC_CFGR_HPRE_Pos] & 0x1FU);
 80018f2:	f000 f82b 	bl	800194c <HAL_RCC_GetSysClockFreq>
 80018f6:	4601      	mov	r1, r0
 80018f8:	4b10      	ldr	r3, [pc, #64]	; (800193c <HAL_RCC_ClockConfig+0x1c0>)
 80018fa:	689b      	ldr	r3, [r3, #8]
 80018fc:	091b      	lsrs	r3, r3, #4
 80018fe:	f003 030f 	and.w	r3, r3, #15
 8001902:	4a0f      	ldr	r2, [pc, #60]	; (8001940 <HAL_RCC_ClockConfig+0x1c4>)
 8001904:	f859 2002 	ldr.w	r2, [r9, r2]
 8001908:	5cd3      	ldrb	r3, [r2, r3]
 800190a:	f003 031f 	and.w	r3, r3, #31
 800190e:	fa21 f303 	lsr.w	r3, r1, r3
 8001912:	4a0c      	ldr	r2, [pc, #48]	; (8001944 <HAL_RCC_ClockConfig+0x1c8>)
 8001914:	f859 2002 	ldr.w	r2, [r9, r2]
 8001918:	6013      	str	r3, [r2, #0]

  /* Configure the source of time base considering new system clocks settings*/
  status = HAL_InitTick(uwTickPrio);
 800191a:	4b0b      	ldr	r3, [pc, #44]	; (8001948 <HAL_RCC_ClockConfig+0x1cc>)
 800191c:	f859 3003 	ldr.w	r3, [r9, r3]
 8001920:	681b      	ldr	r3, [r3, #0]
 8001922:	4618      	mov	r0, r3
 8001924:	f7fe ff42 	bl	80007ac <HAL_InitTick>
 8001928:	4603      	mov	r3, r0
 800192a:	72fb      	strb	r3, [r7, #11]

  return status;
 800192c:	7afb      	ldrb	r3, [r7, #11]
}
 800192e:	4618      	mov	r0, r3
 8001930:	3710      	adds	r7, #16
 8001932:	46bd      	mov	sp, r7
 8001934:	bd80      	pop	{r7, pc}
 8001936:	bf00      	nop
 8001938:	40022000 	.word	0x40022000
 800193c:	40021000 	.word	0x40021000
 8001940:	00000018 	.word	0x00000018
 8001944:	00000004 	.word	0x00000004
 8001948:	00000010 	.word	0x00000010

0800194c <HAL_RCC_GetSysClockFreq>:
  *
  *
  * @retval SYSCLK frequency
  */
uint32_t HAL_RCC_GetSysClockFreq(void)
{
 800194c:	b480      	push	{r7}
 800194e:	b089      	sub	sp, #36	; 0x24
 8001950:	af00      	add	r7, sp, #0
  uint32_t msirange = 0U, sysclockfreq = 0U;
 8001952:	2300      	movs	r3, #0
 8001954:	61fb      	str	r3, [r7, #28]
 8001956:	2300      	movs	r3, #0
 8001958:	61bb      	str	r3, [r7, #24]
  uint32_t pllvco, pllsource, pllr, pllm;    /* no init needed */
  uint32_t sysclk_source, pll_oscsource;

  sysclk_source = __HAL_RCC_GET_SYSCLK_SOURCE();
 800195a:	4b3f      	ldr	r3, [pc, #252]	; (8001a58 <HAL_RCC_GetSysClockFreq+0x10c>)
 800195c:	689b      	ldr	r3, [r3, #8]
 800195e:	f003 030c 	and.w	r3, r3, #12
 8001962:	613b      	str	r3, [r7, #16]
  pll_oscsource = __HAL_RCC_GET_PLL_OSCSOURCE();
 8001964:	4b3c      	ldr	r3, [pc, #240]	; (8001a58 <HAL_RCC_GetSysClockFreq+0x10c>)
 8001966:	68db      	ldr	r3, [r3, #12]
 8001968:	f003 0303 	and.w	r3, r3, #3
 800196c:	60fb      	str	r3, [r7, #12]

  if((sysclk_source == RCC_CFGR_SWS_MSI) ||
 800196e:	693b      	ldr	r3, [r7, #16]
 8001970:	2b00      	cmp	r3, #0
 8001972:	d005      	beq.n	8001980 <HAL_RCC_GetSysClockFreq+0x34>
 8001974:	693b      	ldr	r3, [r7, #16]
 8001976:	2b0c      	cmp	r3, #12
 8001978:	d124      	bne.n	80019c4 <HAL_RCC_GetSysClockFreq+0x78>
     ((sysclk_source == RCC_CFGR_SWS_PLL) && (pll_oscsource == RCC_PLLSOURCE_MSI)))
 800197a:	68fb      	ldr	r3, [r7, #12]
 800197c:	2b01      	cmp	r3, #1
 800197e:	d121      	bne.n	80019c4 <HAL_RCC_GetSysClockFreq+0x78>
  {
    /* MSI or PLL with MSI source used as system clock source */

    /* Get SYSCLK source */
    if(READ_BIT(RCC->CR, RCC_CR_MSIRGSEL) == 0U)
 8001980:	4b35      	ldr	r3, [pc, #212]	; (8001a58 <HAL_RCC_GetSysClockFreq+0x10c>)
 8001982:	681b      	ldr	r3, [r3, #0]
 8001984:	f003 0308 	and.w	r3, r3, #8
 8001988:	2b00      	cmp	r3, #0
 800198a:	d107      	bne.n	800199c <HAL_RCC_GetSysClockFreq+0x50>
    { /* MSISRANGE from RCC_CSR applies */
      msirange = READ_BIT(RCC->CSR, RCC_CSR_MSISRANGE) >> RCC_CSR_MSISRANGE_Pos;
 800198c:	4b32      	ldr	r3, [pc, #200]	; (8001a58 <HAL_RCC_GetSysClockFreq+0x10c>)
 800198e:	f8d3 3094 	ldr.w	r3, [r3, #148]	; 0x94
 8001992:	0a1b      	lsrs	r3, r3, #8
 8001994:	f003 030f 	and.w	r3, r3, #15
 8001998:	61fb      	str	r3, [r7, #28]
 800199a:	e005      	b.n	80019a8 <HAL_RCC_GetSysClockFreq+0x5c>
    }
    else
    { /* MSIRANGE from RCC_CR applies */
      msirange = READ_BIT(RCC->CR, RCC_CR_MSIRANGE) >> RCC_CR_MSIRANGE_Pos;
 800199c:	4b2e      	ldr	r3, [pc, #184]	; (8001a58 <HAL_RCC_GetSysClockFreq+0x10c>)
 800199e:	681b      	ldr	r3, [r3, #0]
 80019a0:	091b      	lsrs	r3, r3, #4
 80019a2:	f003 030f 	and.w	r3, r3, #15
 80019a6:	61fb      	str	r3, [r7, #28]
    }
    /*MSI frequency range in HZ*/
    msirange = MSIRangeTable[msirange];
 80019a8:	4b2e      	ldr	r3, [pc, #184]	; (8001a64 <HAL_RCC_GetSysClockFreq+0x118>)
 80019aa:	f859 3003 	ldr.w	r3, [r9, r3]
 80019ae:	461a      	mov	r2, r3
 80019b0:	69fb      	ldr	r3, [r7, #28]
 80019b2:	f852 3023 	ldr.w	r3, [r2, r3, lsl #2]
 80019b6:	61fb      	str	r3, [r7, #28]

    if(sysclk_source == RCC_CFGR_SWS_MSI)
 80019b8:	693b      	ldr	r3, [r7, #16]
 80019ba:	2b00      	cmp	r3, #0
 80019bc:	d10d      	bne.n	80019da <HAL_RCC_GetSysClockFreq+0x8e>
    {
      /* MSI used as system clock source */
      sysclockfreq = msirange;
 80019be:	69fb      	ldr	r3, [r7, #28]
 80019c0:	61bb      	str	r3, [r7, #24]
    if(sysclk_source == RCC_CFGR_SWS_MSI)
 80019c2:	e00a      	b.n	80019da <HAL_RCC_GetSysClockFreq+0x8e>
    }
  }
  else if(sysclk_source == RCC_CFGR_SWS_HSI)
 80019c4:	693b      	ldr	r3, [r7, #16]
 80019c6:	2b04      	cmp	r3, #4
 80019c8:	d102      	bne.n	80019d0 <HAL_RCC_GetSysClockFreq+0x84>
  {
    /* HSI used as system clock source */
    sysclockfreq = HSI_VALUE;
 80019ca:	4b24      	ldr	r3, [pc, #144]	; (8001a5c <HAL_RCC_GetSysClockFreq+0x110>)
 80019cc:	61bb      	str	r3, [r7, #24]
 80019ce:	e004      	b.n	80019da <HAL_RCC_GetSysClockFreq+0x8e>
  }
  else if(sysclk_source == RCC_CFGR_SWS_HSE)
 80019d0:	693b      	ldr	r3, [r7, #16]
 80019d2:	2b08      	cmp	r3, #8
 80019d4:	d101      	bne.n	80019da <HAL_RCC_GetSysClockFreq+0x8e>
  {
    /* HSE used as system clock source */
    sysclockfreq = HSE_VALUE;
 80019d6:	4b22      	ldr	r3, [pc, #136]	; (8001a60 <HAL_RCC_GetSysClockFreq+0x114>)
 80019d8:	61bb      	str	r3, [r7, #24]
  else
  {
    /* unexpected case: sysclockfreq at 0 */
  }

  if(sysclk_source == RCC_CFGR_SWS_PLL)
 80019da:	693b      	ldr	r3, [r7, #16]
 80019dc:	2b0c      	cmp	r3, #12
 80019de:	d134      	bne.n	8001a4a <HAL_RCC_GetSysClockFreq+0xfe>
    /* PLL used as system clock  source */

    /* PLL_VCO = (HSE_VALUE or HSI_VALUE or MSI_VALUE) * PLLN / PLLM
    SYSCLK = PLL_VCO / PLLR
    */
    pllsource = READ_BIT(RCC->PLLCFGR, RCC_PLLCFGR_PLLSRC);
 80019e0:	4b1d      	ldr	r3, [pc, #116]	; (8001a58 <HAL_RCC_GetSysClockFreq+0x10c>)
 80019e2:	68db      	ldr	r3, [r3, #12]
 80019e4:	f003 0303 	and.w	r3, r3, #3
 80019e8:	60bb      	str	r3, [r7, #8]

    switch (pllsource)
 80019ea:	68bb      	ldr	r3, [r7, #8]
 80019ec:	2b02      	cmp	r3, #2
 80019ee:	d003      	beq.n	80019f8 <HAL_RCC_GetSysClockFreq+0xac>
 80019f0:	68bb      	ldr	r3, [r7, #8]
 80019f2:	2b03      	cmp	r3, #3
 80019f4:	d003      	beq.n	80019fe <HAL_RCC_GetSysClockFreq+0xb2>
 80019f6:	e005      	b.n	8001a04 <HAL_RCC_GetSysClockFreq+0xb8>
    {
    case RCC_PLLSOURCE_HSI:  /* HSI used as PLL clock source */
      pllvco = HSI_VALUE;
 80019f8:	4b18      	ldr	r3, [pc, #96]	; (8001a5c <HAL_RCC_GetSysClockFreq+0x110>)
 80019fa:	617b      	str	r3, [r7, #20]
      break;
 80019fc:	e005      	b.n	8001a0a <HAL_RCC_GetSysClockFreq+0xbe>

    case RCC_PLLSOURCE_HSE:  /* HSE used as PLL clock source */
      pllvco = HSE_VALUE;
 80019fe:	4b18      	ldr	r3, [pc, #96]	; (8001a60 <HAL_RCC_GetSysClockFreq+0x114>)
 8001a00:	617b      	str	r3, [r7, #20]
      break;
 8001a02:	e002      	b.n	8001a0a <HAL_RCC_GetSysClockFreq+0xbe>

    case RCC_PLLSOURCE_MSI:  /* MSI used as PLL clock source */
    default:
      pllvco = msirange;
 8001a04:	69fb      	ldr	r3, [r7, #28]
 8001a06:	617b      	str	r3, [r7, #20]
      break;
 8001a08:	bf00      	nop
    }
    pllm = (READ_BIT(RCC->PLLCFGR, RCC_PLLCFGR_PLLM) >> RCC_PLLCFGR_PLLM_Pos) + 1U ;
 8001a0a:	4b13      	ldr	r3, [pc, #76]	; (8001a58 <HAL_RCC_GetSysClockFreq+0x10c>)
 8001a0c:	68db      	ldr	r3, [r3, #12]
 8001a0e:	091b      	lsrs	r3, r3, #4
 8001a10:	f003 0307 	and.w	r3, r3, #7
 8001a14:	3301      	adds	r3, #1
 8001a16:	607b      	str	r3, [r7, #4]
    pllvco = (pllvco * (READ_BIT(RCC->PLLCFGR, RCC_PLLCFGR_PLLN) >> RCC_PLLCFGR_PLLN_Pos)) / pllm;
 8001a18:	4b0f      	ldr	r3, [pc, #60]	; (8001a58 <HAL_RCC_GetSysClockFreq+0x10c>)
 8001a1a:	68db      	ldr	r3, [r3, #12]
 8001a1c:	0a1b      	lsrs	r3, r3, #8
 8001a1e:	f003 037f 	and.w	r3, r3, #127	; 0x7f
 8001a22:	697a      	ldr	r2, [r7, #20]
 8001a24:	fb02 f203 	mul.w	r2, r2, r3
 8001a28:	687b      	ldr	r3, [r7, #4]
 8001a2a:	fbb2 f3f3 	udiv	r3, r2, r3
 8001a2e:	617b      	str	r3, [r7, #20]
    pllr = ((READ_BIT(RCC->PLLCFGR, RCC_PLLCFGR_PLLR) >> RCC_PLLCFGR_PLLR_Pos) + 1U ) * 2U;
 8001a30:	4b09      	ldr	r3, [pc, #36]	; (8001a58 <HAL_RCC_GetSysClockFreq+0x10c>)
 8001a32:	68db      	ldr	r3, [r3, #12]
 8001a34:	0e5b      	lsrs	r3, r3, #25
 8001a36:	f003 0303 	and.w	r3, r3, #3
 8001a3a:	3301      	adds	r3, #1
 8001a3c:	005b      	lsls	r3, r3, #1
 8001a3e:	603b      	str	r3, [r7, #0]
    sysclockfreq = pllvco / pllr;
 8001a40:	697a      	ldr	r2, [r7, #20]
 8001a42:	683b      	ldr	r3, [r7, #0]
 8001a44:	fbb2 f3f3 	udiv	r3, r2, r3
 8001a48:	61bb      	str	r3, [r7, #24]
  }

  return sysclockfreq;
 8001a4a:	69bb      	ldr	r3, [r7, #24]
}
 8001a4c:	4618      	mov	r0, r3
 8001a4e:	3724      	adds	r7, #36	; 0x24
 8001a50:	46bd      	mov	sp, r7
 8001a52:	f85d 7b04 	ldr.w	r7, [sp], #4
 8001a56:	4770      	bx	lr
 8001a58:	40021000 	.word	0x40021000
 8001a5c:	00f42400 	.word	0x00f42400
 8001a60:	007a1200 	.word	0x007a1200
 8001a64:	00000000 	.word	0x00000000

08001a68 <RCC_SetFlashLatencyFromMSIRange>:
            voltage range.
  * @param  msirange  MSI range value from RCC_MSIRANGE_0 to RCC_MSIRANGE_11
  * @retval HAL status
  */
static HAL_StatusTypeDef RCC_SetFlashLatencyFromMSIRange(uint32_t msirange)
{
 8001a68:	b580      	push	{r7, lr}
 8001a6a:	b086      	sub	sp, #24
 8001a6c:	af00      	add	r7, sp, #0
 8001a6e:	6078      	str	r0, [r7, #4]
  uint32_t vos;
  uint32_t latency = FLASH_LATENCY_0;  /* default value 0WS */
 8001a70:	2300      	movs	r3, #0
 8001a72:	613b      	str	r3, [r7, #16]

  if(__HAL_RCC_PWR_IS_CLK_ENABLED())
 8001a74:	4b2a      	ldr	r3, [pc, #168]	; (8001b20 <RCC_SetFlashLatencyFromMSIRange+0xb8>)
 8001a76:	6d9b      	ldr	r3, [r3, #88]	; 0x58
 8001a78:	f003 5380 	and.w	r3, r3, #268435456	; 0x10000000
 8001a7c:	2b00      	cmp	r3, #0
 8001a7e:	d003      	beq.n	8001a88 <RCC_SetFlashLatencyFromMSIRange+0x20>
  {
    vos = HAL_PWREx_GetVoltageRange();
 8001a80:	f7ff f9f0 	bl	8000e64 <HAL_PWREx_GetVoltageRange>
 8001a84:	6178      	str	r0, [r7, #20]
 8001a86:	e014      	b.n	8001ab2 <RCC_SetFlashLatencyFromMSIRange+0x4a>
  }
  else
  {
    __HAL_RCC_PWR_CLK_ENABLE();
 8001a88:	4b25      	ldr	r3, [pc, #148]	; (8001b20 <RCC_SetFlashLatencyFromMSIRange+0xb8>)
 8001a8a:	6d9b      	ldr	r3, [r3, #88]	; 0x58
 8001a8c:	4a24      	ldr	r2, [pc, #144]	; (8001b20 <RCC_SetFlashLatencyFromMSIRange+0xb8>)
 8001a8e:	f043 5380 	orr.w	r3, r3, #268435456	; 0x10000000
 8001a92:	6593      	str	r3, [r2, #88]	; 0x58
 8001a94:	4b22      	ldr	r3, [pc, #136]	; (8001b20 <RCC_SetFlashLatencyFromMSIRange+0xb8>)
 8001a96:	6d9b      	ldr	r3, [r3, #88]	; 0x58
 8001a98:	f003 5380 	and.w	r3, r3, #268435456	; 0x10000000
 8001a9c:	60fb      	str	r3, [r7, #12]
 8001a9e:	68fb      	ldr	r3, [r7, #12]
    vos = HAL_PWREx_GetVoltageRange();
 8001aa0:	f7ff f9e0 	bl	8000e64 <HAL_PWREx_GetVoltageRange>
 8001aa4:	6178      	str	r0, [r7, #20]
    __HAL_RCC_PWR_CLK_DISABLE();
 8001aa6:	4b1e      	ldr	r3, [pc, #120]	; (8001b20 <RCC_SetFlashLatencyFromMSIRange+0xb8>)
 8001aa8:	6d9b      	ldr	r3, [r3, #88]	; 0x58
 8001aaa:	4a1d      	ldr	r2, [pc, #116]	; (8001b20 <RCC_SetFlashLatencyFromMSIRange+0xb8>)
 8001aac:	f023 5380 	bic.w	r3, r3, #268435456	; 0x10000000
 8001ab0:	6593      	str	r3, [r2, #88]	; 0x58
  }

  if(vos == PWR_REGULATOR_VOLTAGE_SCALE1)
 8001ab2:	697b      	ldr	r3, [r7, #20]
 8001ab4:	f5b3 7f00 	cmp.w	r3, #512	; 0x200
 8001ab8:	d10b      	bne.n	8001ad2 <RCC_SetFlashLatencyFromMSIRange+0x6a>
  {
    if(msirange > RCC_MSIRANGE_8)
 8001aba:	687b      	ldr	r3, [r7, #4]
 8001abc:	2b80      	cmp	r3, #128	; 0x80
 8001abe:	d919      	bls.n	8001af4 <RCC_SetFlashLatencyFromMSIRange+0x8c>
    {
      /* MSI > 16Mhz */
      if(msirange > RCC_MSIRANGE_10)
 8001ac0:	687b      	ldr	r3, [r7, #4]
 8001ac2:	2ba0      	cmp	r3, #160	; 0xa0
 8001ac4:	d902      	bls.n	8001acc <RCC_SetFlashLatencyFromMSIRange+0x64>
      {
        /* MSI 48Mhz */
        latency = FLASH_LATENCY_2; /* 2WS */
 8001ac6:	2302      	movs	r3, #2
 8001ac8:	613b      	str	r3, [r7, #16]
 8001aca:	e013      	b.n	8001af4 <RCC_SetFlashLatencyFromMSIRange+0x8c>
      }
      else
      {
        /* MSI 24Mhz or 32Mhz */
        latency = FLASH_LATENCY_1; /* 1WS */
 8001acc:	2301      	movs	r3, #1
 8001ace:	613b      	str	r3, [r7, #16]
 8001ad0:	e010      	b.n	8001af4 <RCC_SetFlashLatencyFromMSIRange+0x8c>
        latency = FLASH_LATENCY_1; /* 1WS */
      }
      /* else MSI < 8Mhz default FLASH_LATENCY_0 0WS */
    }
#else
    if(msirange > RCC_MSIRANGE_8)
 8001ad2:	687b      	ldr	r3, [r7, #4]
 8001ad4:	2b80      	cmp	r3, #128	; 0x80
 8001ad6:	d902      	bls.n	8001ade <RCC_SetFlashLatencyFromMSIRange+0x76>
    {
      /* MSI > 16Mhz */
      latency = FLASH_LATENCY_3; /* 3WS */
 8001ad8:	2303      	movs	r3, #3
 8001ada:	613b      	str	r3, [r7, #16]
 8001adc:	e00a      	b.n	8001af4 <RCC_SetFlashLatencyFromMSIRange+0x8c>
    }
    else
    {
      if(msirange == RCC_MSIRANGE_8)
 8001ade:	687b      	ldr	r3, [r7, #4]
 8001ae0:	2b80      	cmp	r3, #128	; 0x80
 8001ae2:	d102      	bne.n	8001aea <RCC_SetFlashLatencyFromMSIRange+0x82>
      {
        /* MSI 16Mhz */
        latency = FLASH_LATENCY_2; /* 2WS */
 8001ae4:	2302      	movs	r3, #2
 8001ae6:	613b      	str	r3, [r7, #16]
 8001ae8:	e004      	b.n	8001af4 <RCC_SetFlashLatencyFromMSIRange+0x8c>
      }
      else if(msirange == RCC_MSIRANGE_7)
 8001aea:	687b      	ldr	r3, [r7, #4]
 8001aec:	2b70      	cmp	r3, #112	; 0x70
 8001aee:	d101      	bne.n	8001af4 <RCC_SetFlashLatencyFromMSIRange+0x8c>
      {
        /* MSI 8Mhz */
        latency = FLASH_LATENCY_1; /* 1WS */
 8001af0:	2301      	movs	r3, #1
 8001af2:	613b      	str	r3, [r7, #16]
      /* else MSI < 8Mhz default FLASH_LATENCY_0 0WS */
    }
#endif
  }

  __HAL_FLASH_SET_LATENCY(latency);
 8001af4:	4b0b      	ldr	r3, [pc, #44]	; (8001b24 <RCC_SetFlashLatencyFromMSIRange+0xbc>)
 8001af6:	681b      	ldr	r3, [r3, #0]
 8001af8:	f023 0207 	bic.w	r2, r3, #7
 8001afc:	4909      	ldr	r1, [pc, #36]	; (8001b24 <RCC_SetFlashLatencyFromMSIRange+0xbc>)
 8001afe:	693b      	ldr	r3, [r7, #16]
 8001b00:	4313      	orrs	r3, r2
 8001b02:	600b      	str	r3, [r1, #0]

  /* Check that the new number of wait states is taken into account to access the Flash
     memory by reading the FLASH_ACR register */
  if(__HAL_FLASH_GET_LATENCY() != latency)
 8001b04:	4b07      	ldr	r3, [pc, #28]	; (8001b24 <RCC_SetFlashLatencyFromMSIRange+0xbc>)
 8001b06:	681b      	ldr	r3, [r3, #0]
 8001b08:	f003 0307 	and.w	r3, r3, #7
 8001b0c:	693a      	ldr	r2, [r7, #16]
 8001b0e:	429a      	cmp	r2, r3
 8001b10:	d001      	beq.n	8001b16 <RCC_SetFlashLatencyFromMSIRange+0xae>
  {
    return HAL_ERROR;
 8001b12:	2301      	movs	r3, #1
 8001b14:	e000      	b.n	8001b18 <RCC_SetFlashLatencyFromMSIRange+0xb0>
  }

  return HAL_OK;
 8001b16:	2300      	movs	r3, #0
}
 8001b18:	4618      	mov	r0, r3
 8001b1a:	3718      	adds	r7, #24
 8001b1c:	46bd      	mov	sp, r7
 8001b1e:	bd80      	pop	{r7, pc}
 8001b20:	40021000 	.word	0x40021000
 8001b24:	40022000 	.word	0x40022000

08001b28 <HAL_RCCEx_EnableMSIPLLMode>:
  * @note   Prior to enable the PLL-mode of the MSI for automatic hardware
  *         calibration LSE oscillator is to be enabled with HAL_RCC_OscConfig().
  * @retval None
  */
void HAL_RCCEx_EnableMSIPLLMode(void)
{
 8001b28:	b480      	push	{r7}
 8001b2a:	af00      	add	r7, sp, #0
  SET_BIT(RCC->CR, RCC_CR_MSIPLLEN) ;
 8001b2c:	4b05      	ldr	r3, [pc, #20]	; (8001b44 <HAL_RCCEx_EnableMSIPLLMode+0x1c>)
 8001b2e:	681b      	ldr	r3, [r3, #0]
 8001b30:	4a04      	ldr	r2, [pc, #16]	; (8001b44 <HAL_RCCEx_EnableMSIPLLMode+0x1c>)
 8001b32:	f043 0304 	orr.w	r3, r3, #4
 8001b36:	6013      	str	r3, [r2, #0]
}
 8001b38:	bf00      	nop
 8001b3a:	46bd      	mov	sp, r7
 8001b3c:	f85d 7b04 	ldr.w	r7, [sp], #4
 8001b40:	4770      	bx	lr
 8001b42:	bf00      	nop
 8001b44:	40021000 	.word	0x40021000

08001b48 <HAL_TIM_Base_Init>:
  *         Ex: call @ref HAL_TIM_Base_DeInit() before HAL_TIM_Base_Init()
  * @param  htim TIM Base handle
  * @retval HAL status
  */
HAL_StatusTypeDef HAL_TIM_Base_Init(TIM_HandleTypeDef *htim)
{
 8001b48:	b580      	push	{r7, lr}
 8001b4a:	b082      	sub	sp, #8
 8001b4c:	af00      	add	r7, sp, #0
 8001b4e:	6078      	str	r0, [r7, #4]
  /* Check the TIM handle allocation */
  if (htim == NULL)
 8001b50:	687b      	ldr	r3, [r7, #4]
 8001b52:	2b00      	cmp	r3, #0
 8001b54:	d101      	bne.n	8001b5a <HAL_TIM_Base_Init+0x12>
  {
    return HAL_ERROR;
 8001b56:	2301      	movs	r3, #1
 8001b58:	e049      	b.n	8001bee <HAL_TIM_Base_Init+0xa6>
  assert_param(IS_TIM_INSTANCE(htim->Instance));
  assert_param(IS_TIM_COUNTER_MODE(htim->Init.CounterMode));
  assert_param(IS_TIM_CLOCKDIVISION_DIV(htim->Init.ClockDivision));
  assert_param(IS_TIM_AUTORELOAD_PRELOAD(htim->Init.AutoReloadPreload));

  if (htim->State == HAL_TIM_STATE_RESET)
 8001b5a:	687b      	ldr	r3, [r7, #4]
 8001b5c:	f893 303d 	ldrb.w	r3, [r3, #61]	; 0x3d
 8001b60:	b2db      	uxtb	r3, r3
 8001b62:	2b00      	cmp	r3, #0
 8001b64:	d106      	bne.n	8001b74 <HAL_TIM_Base_Init+0x2c>
  {
    /* Allocate lock resource and initialize it */
    htim->Lock = HAL_UNLOCKED;
 8001b66:	687b      	ldr	r3, [r7, #4]
 8001b68:	2200      	movs	r2, #0
 8001b6a:	f883 203c 	strb.w	r2, [r3, #60]	; 0x3c
    }
    /* Init the low level hardware : GPIO, CLOCK, NVIC */
    htim->Base_MspInitCallback(htim);
#else
    /* Init the low level hardware : GPIO, CLOCK, NVIC */
    HAL_TIM_Base_MspInit(htim);
 8001b6e:	6878      	ldr	r0, [r7, #4]
 8001b70:	f7fe fc8a 	bl	8000488 <HAL_TIM_Base_MspInit>
#endif /* USE_HAL_TIM_REGISTER_CALLBACKS */
  }

  /* Set the TIM state */
  htim->State = HAL_TIM_STATE_BUSY;
 8001b74:	687b      	ldr	r3, [r7, #4]
 8001b76:	2202      	movs	r2, #2
 8001b78:	f883 203d 	strb.w	r2, [r3, #61]	; 0x3d

  /* Set the Time Base configuration */
  TIM_Base_SetConfig(htim->Instance, &htim->Init);
 8001b7c:	687b      	ldr	r3, [r7, #4]
 8001b7e:	681a      	ldr	r2, [r3, #0]
 8001b80:	687b      	ldr	r3, [r7, #4]
 8001b82:	3304      	adds	r3, #4
 8001b84:	4619      	mov	r1, r3
 8001b86:	4610      	mov	r0, r2
 8001b88:	f000 fa2e 	bl	8001fe8 <TIM_Base_SetConfig>

  /* Initialize the DMA burst operation state */
  htim->DMABurstState = HAL_DMA_BURST_STATE_READY;
 8001b8c:	687b      	ldr	r3, [r7, #4]
 8001b8e:	2201      	movs	r2, #1
 8001b90:	f883 2048 	strb.w	r2, [r3, #72]	; 0x48

  /* Initialize the TIM channels state */
  TIM_CHANNEL_STATE_SET_ALL(htim, HAL_TIM_CHANNEL_STATE_READY);
 8001b94:	687b      	ldr	r3, [r7, #4]
 8001b96:	2201      	movs	r2, #1
 8001b98:	f883 203e 	strb.w	r2, [r3, #62]	; 0x3e
 8001b9c:	687b      	ldr	r3, [r7, #4]
 8001b9e:	2201      	movs	r2, #1
 8001ba0:	f883 203f 	strb.w	r2, [r3, #63]	; 0x3f
 8001ba4:	687b      	ldr	r3, [r7, #4]
 8001ba6:	2201      	movs	r2, #1
 8001ba8:	f883 2040 	strb.w	r2, [r3, #64]	; 0x40
 8001bac:	687b      	ldr	r3, [r7, #4]
 8001bae:	2201      	movs	r2, #1
 8001bb0:	f883 2041 	strb.w	r2, [r3, #65]	; 0x41
 8001bb4:	687b      	ldr	r3, [r7, #4]
 8001bb6:	2201      	movs	r2, #1
 8001bb8:	f883 2042 	strb.w	r2, [r3, #66]	; 0x42
 8001bbc:	687b      	ldr	r3, [r7, #4]
 8001bbe:	2201      	movs	r2, #1
 8001bc0:	f883 2043 	strb.w	r2, [r3, #67]	; 0x43
  TIM_CHANNEL_N_STATE_SET_ALL(htim, HAL_TIM_CHANNEL_STATE_READY);
 8001bc4:	687b      	ldr	r3, [r7, #4]
 8001bc6:	2201      	movs	r2, #1
 8001bc8:	f883 2044 	strb.w	r2, [r3, #68]	; 0x44
 8001bcc:	687b      	ldr	r3, [r7, #4]
 8001bce:	2201      	movs	r2, #1
 8001bd0:	f883 2045 	strb.w	r2, [r3, #69]	; 0x45
 8001bd4:	687b      	ldr	r3, [r7, #4]
 8001bd6:	2201      	movs	r2, #1
 8001bd8:	f883 2046 	strb.w	r2, [r3, #70]	; 0x46
 8001bdc:	687b      	ldr	r3, [r7, #4]
 8001bde:	2201      	movs	r2, #1
 8001be0:	f883 2047 	strb.w	r2, [r3, #71]	; 0x47

  /* Initialize the TIM state*/
  htim->State = HAL_TIM_STATE_READY;
 8001be4:	687b      	ldr	r3, [r7, #4]
 8001be6:	2201      	movs	r2, #1
 8001be8:	f883 203d 	strb.w	r2, [r3, #61]	; 0x3d

  return HAL_OK;
 8001bec:	2300      	movs	r3, #0
}
 8001bee:	4618      	mov	r0, r3
 8001bf0:	3708      	adds	r7, #8
 8001bf2:	46bd      	mov	sp, r7
 8001bf4:	bd80      	pop	{r7, pc}

08001bf6 <HAL_TIM_Base_DeInit>:
  * @brief  DeInitializes the TIM Base peripheral
  * @param  htim TIM Base handle
  * @retval HAL status
  */
HAL_StatusTypeDef HAL_TIM_Base_DeInit(TIM_HandleTypeDef *htim)
{
 8001bf6:	b580      	push	{r7, lr}
 8001bf8:	b082      	sub	sp, #8
 8001bfa:	af00      	add	r7, sp, #0
 8001bfc:	6078      	str	r0, [r7, #4]
  /* Check the parameters */
  assert_param(IS_TIM_INSTANCE(htim->Instance));

  htim->State = HAL_TIM_STATE_BUSY;
 8001bfe:	687b      	ldr	r3, [r7, #4]
 8001c00:	2202      	movs	r2, #2
 8001c02:	f883 203d 	strb.w	r2, [r3, #61]	; 0x3d

  /* Disable the TIM Peripheral Clock */
  __HAL_TIM_DISABLE(htim);
 8001c06:	687b      	ldr	r3, [r7, #4]
 8001c08:	681b      	ldr	r3, [r3, #0]
 8001c0a:	6a1a      	ldr	r2, [r3, #32]
 8001c0c:	f241 1311 	movw	r3, #4369	; 0x1111
 8001c10:	4013      	ands	r3, r2
 8001c12:	2b00      	cmp	r3, #0
 8001c14:	d10f      	bne.n	8001c36 <HAL_TIM_Base_DeInit+0x40>
 8001c16:	687b      	ldr	r3, [r7, #4]
 8001c18:	681b      	ldr	r3, [r3, #0]
 8001c1a:	6a1a      	ldr	r2, [r3, #32]
 8001c1c:	f240 4344 	movw	r3, #1092	; 0x444
 8001c20:	4013      	ands	r3, r2
 8001c22:	2b00      	cmp	r3, #0
 8001c24:	d107      	bne.n	8001c36 <HAL_TIM_Base_DeInit+0x40>
 8001c26:	687b      	ldr	r3, [r7, #4]
 8001c28:	681b      	ldr	r3, [r3, #0]
 8001c2a:	681a      	ldr	r2, [r3, #0]
 8001c2c:	687b      	ldr	r3, [r7, #4]
 8001c2e:	681b      	ldr	r3, [r3, #0]
 8001c30:	f022 0201 	bic.w	r2, r2, #1
 8001c34:	601a      	str	r2, [r3, #0]
  }
  /* DeInit the low level hardware */
  htim->Base_MspDeInitCallback(htim);
#else
  /* DeInit the low level hardware: GPIO, CLOCK, NVIC */
  HAL_TIM_Base_MspDeInit(htim);
 8001c36:	6878      	ldr	r0, [r7, #4]
 8001c38:	f7fe fc4c 	bl	80004d4 <HAL_TIM_Base_MspDeInit>
#endif /* USE_HAL_TIM_REGISTER_CALLBACKS */

  /* Change the DMA burst operation state */
  htim->DMABurstState = HAL_DMA_BURST_STATE_RESET;
 8001c3c:	687b      	ldr	r3, [r7, #4]
 8001c3e:	2200      	movs	r2, #0
 8001c40:	f883 2048 	strb.w	r2, [r3, #72]	; 0x48

  /* Change the TIM channels state */
  TIM_CHANNEL_STATE_SET_ALL(htim, HAL_TIM_CHANNEL_STATE_RESET);
 8001c44:	687b      	ldr	r3, [r7, #4]
 8001c46:	2200      	movs	r2, #0
 8001c48:	f883 203e 	strb.w	r2, [r3, #62]	; 0x3e
 8001c4c:	687b      	ldr	r3, [r7, #4]
 8001c4e:	2200      	movs	r2, #0
 8001c50:	f883 203f 	strb.w	r2, [r3, #63]	; 0x3f
 8001c54:	687b      	ldr	r3, [r7, #4]
 8001c56:	2200      	movs	r2, #0
 8001c58:	f883 2040 	strb.w	r2, [r3, #64]	; 0x40
 8001c5c:	687b      	ldr	r3, [r7, #4]
 8001c5e:	2200      	movs	r2, #0
 8001c60:	f883 2041 	strb.w	r2, [r3, #65]	; 0x41
 8001c64:	687b      	ldr	r3, [r7, #4]
 8001c66:	2200      	movs	r2, #0
 8001c68:	f883 2042 	strb.w	r2, [r3, #66]	; 0x42
 8001c6c:	687b      	ldr	r3, [r7, #4]
 8001c6e:	2200      	movs	r2, #0
 8001c70:	f883 2043 	strb.w	r2, [r3, #67]	; 0x43
  TIM_CHANNEL_N_STATE_SET_ALL(htim, HAL_TIM_CHANNEL_STATE_RESET);
 8001c74:	687b      	ldr	r3, [r7, #4]
 8001c76:	2200      	movs	r2, #0
 8001c78:	f883 2044 	strb.w	r2, [r3, #68]	; 0x44
 8001c7c:	687b      	ldr	r3, [r7, #4]
 8001c7e:	2200      	movs	r2, #0
 8001c80:	f883 2045 	strb.w	r2, [r3, #69]	; 0x45
 8001c84:	687b      	ldr	r3, [r7, #4]
 8001c86:	2200      	movs	r2, #0
 8001c88:	f883 2046 	strb.w	r2, [r3, #70]	; 0x46
 8001c8c:	687b      	ldr	r3, [r7, #4]
 8001c8e:	2200      	movs	r2, #0
 8001c90:	f883 2047 	strb.w	r2, [r3, #71]	; 0x47

  /* Change TIM state */
  htim->State = HAL_TIM_STATE_RESET;
 8001c94:	687b      	ldr	r3, [r7, #4]
 8001c96:	2200      	movs	r2, #0
 8001c98:	f883 203d 	strb.w	r2, [r3, #61]	; 0x3d

  /* Release Lock */
  __HAL_UNLOCK(htim);
 8001c9c:	687b      	ldr	r3, [r7, #4]
 8001c9e:	2200      	movs	r2, #0
 8001ca0:	f883 203c 	strb.w	r2, [r3, #60]	; 0x3c

  return HAL_OK;
 8001ca4:	2300      	movs	r3, #0
}
 8001ca6:	4618      	mov	r0, r3
 8001ca8:	3708      	adds	r7, #8
 8001caa:	46bd      	mov	sp, r7
 8001cac:	bd80      	pop	{r7, pc}
	...

08001cb0 <HAL_TIM_Base_Start_IT>:
  * @brief  Starts the TIM Base generation in interrupt mode.
  * @param  htim TIM Base handle
  * @retval HAL status
  */
HAL_StatusTypeDef HAL_TIM_Base_Start_IT(TIM_HandleTypeDef *htim)
{
 8001cb0:	b480      	push	{r7}
 8001cb2:	b085      	sub	sp, #20
 8001cb4:	af00      	add	r7, sp, #0
 8001cb6:	6078      	str	r0, [r7, #4]

  /* Check the parameters */
  assert_param(IS_TIM_INSTANCE(htim->Instance));

  /* Check the TIM state */
  if (htim->State != HAL_TIM_STATE_READY)
 8001cb8:	687b      	ldr	r3, [r7, #4]
 8001cba:	f893 303d 	ldrb.w	r3, [r3, #61]	; 0x3d
 8001cbe:	b2db      	uxtb	r3, r3
 8001cc0:	2b01      	cmp	r3, #1
 8001cc2:	d001      	beq.n	8001cc8 <HAL_TIM_Base_Start_IT+0x18>
  {
    return HAL_ERROR;
 8001cc4:	2301      	movs	r3, #1
 8001cc6:	e03b      	b.n	8001d40 <HAL_TIM_Base_Start_IT+0x90>
  }

  /* Set the TIM state */
  htim->State = HAL_TIM_STATE_BUSY;
 8001cc8:	687b      	ldr	r3, [r7, #4]
 8001cca:	2202      	movs	r2, #2
 8001ccc:	f883 203d 	strb.w	r2, [r3, #61]	; 0x3d

  /* Enable the TIM Update interrupt */
  __HAL_TIM_ENABLE_IT(htim, TIM_IT_UPDATE);
 8001cd0:	687b      	ldr	r3, [r7, #4]
 8001cd2:	681b      	ldr	r3, [r3, #0]
 8001cd4:	68da      	ldr	r2, [r3, #12]
 8001cd6:	687b      	ldr	r3, [r7, #4]
 8001cd8:	681b      	ldr	r3, [r3, #0]
 8001cda:	f042 0201 	orr.w	r2, r2, #1
 8001cde:	60da      	str	r2, [r3, #12]

  /* Enable the Peripheral, except in trigger mode where enable is automatically done with trigger */
  if (IS_TIM_SLAVE_INSTANCE(htim->Instance))
 8001ce0:	687b      	ldr	r3, [r7, #4]
 8001ce2:	681b      	ldr	r3, [r3, #0]
 8001ce4:	4a19      	ldr	r2, [pc, #100]	; (8001d4c <HAL_TIM_Base_Start_IT+0x9c>)
 8001ce6:	4293      	cmp	r3, r2
 8001ce8:	d009      	beq.n	8001cfe <HAL_TIM_Base_Start_IT+0x4e>
 8001cea:	687b      	ldr	r3, [r7, #4]
 8001cec:	681b      	ldr	r3, [r3, #0]
 8001cee:	f1b3 4f80 	cmp.w	r3, #1073741824	; 0x40000000
 8001cf2:	d004      	beq.n	8001cfe <HAL_TIM_Base_Start_IT+0x4e>
 8001cf4:	687b      	ldr	r3, [r7, #4]
 8001cf6:	681b      	ldr	r3, [r3, #0]
 8001cf8:	4a15      	ldr	r2, [pc, #84]	; (8001d50 <HAL_TIM_Base_Start_IT+0xa0>)
 8001cfa:	4293      	cmp	r3, r2
 8001cfc:	d115      	bne.n	8001d2a <HAL_TIM_Base_Start_IT+0x7a>
  {
    tmpsmcr = htim->Instance->SMCR & TIM_SMCR_SMS;
 8001cfe:	687b      	ldr	r3, [r7, #4]
 8001d00:	681b      	ldr	r3, [r3, #0]
 8001d02:	689a      	ldr	r2, [r3, #8]
 8001d04:	4b13      	ldr	r3, [pc, #76]	; (8001d54 <HAL_TIM_Base_Start_IT+0xa4>)
 8001d06:	4013      	ands	r3, r2
 8001d08:	60fb      	str	r3, [r7, #12]
    if (!IS_TIM_SLAVEMODE_TRIGGER_ENABLED(tmpsmcr))
 8001d0a:	68fb      	ldr	r3, [r7, #12]
 8001d0c:	2b06      	cmp	r3, #6
 8001d0e:	d015      	beq.n	8001d3c <HAL_TIM_Base_Start_IT+0x8c>
 8001d10:	68fb      	ldr	r3, [r7, #12]
 8001d12:	f5b3 3f80 	cmp.w	r3, #65536	; 0x10000
 8001d16:	d011      	beq.n	8001d3c <HAL_TIM_Base_Start_IT+0x8c>
    {
      __HAL_TIM_ENABLE(htim);
 8001d18:	687b      	ldr	r3, [r7, #4]
 8001d1a:	681b      	ldr	r3, [r3, #0]
 8001d1c:	681a      	ldr	r2, [r3, #0]
 8001d1e:	687b      	ldr	r3, [r7, #4]
 8001d20:	681b      	ldr	r3, [r3, #0]
 8001d22:	f042 0201 	orr.w	r2, r2, #1
 8001d26:	601a      	str	r2, [r3, #0]
    if (!IS_TIM_SLAVEMODE_TRIGGER_ENABLED(tmpsmcr))
 8001d28:	e008      	b.n	8001d3c <HAL_TIM_Base_Start_IT+0x8c>
    }
  }
  else
  {
    __HAL_TIM_ENABLE(htim);
 8001d2a:	687b      	ldr	r3, [r7, #4]
 8001d2c:	681b      	ldr	r3, [r3, #0]
 8001d2e:	681a      	ldr	r2, [r3, #0]
 8001d30:	687b      	ldr	r3, [r7, #4]
 8001d32:	681b      	ldr	r3, [r3, #0]
 8001d34:	f042 0201 	orr.w	r2, r2, #1
 8001d38:	601a      	str	r2, [r3, #0]
 8001d3a:	e000      	b.n	8001d3e <HAL_TIM_Base_Start_IT+0x8e>
    if (!IS_TIM_SLAVEMODE_TRIGGER_ENABLED(tmpsmcr))
 8001d3c:	bf00      	nop
  }

  /* Return function status */
  return HAL_OK;
 8001d3e:	2300      	movs	r3, #0
}
 8001d40:	4618      	mov	r0, r3
 8001d42:	3714      	adds	r7, #20
 8001d44:	46bd      	mov	sp, r7
 8001d46:	f85d 7b04 	ldr.w	r7, [sp], #4
 8001d4a:	4770      	bx	lr
 8001d4c:	40012c00 	.word	0x40012c00
 8001d50:	40014000 	.word	0x40014000
 8001d54:	00010007 	.word	0x00010007

08001d58 <HAL_TIM_IRQHandler>:
  * @brief  This function handles TIM interrupts requests.
  * @param  htim TIM  handle
  * @retval None
  */
void HAL_TIM_IRQHandler(TIM_HandleTypeDef *htim)
{
 8001d58:	b580      	push	{r7, lr}
 8001d5a:	b082      	sub	sp, #8
 8001d5c:	af00      	add	r7, sp, #0
 8001d5e:	6078      	str	r0, [r7, #4]
  /* Capture compare 1 event */
  if (__HAL_TIM_GET_FLAG(htim, TIM_FLAG_CC1) != RESET)
 8001d60:	687b      	ldr	r3, [r7, #4]
 8001d62:	681b      	ldr	r3, [r3, #0]
 8001d64:	691b      	ldr	r3, [r3, #16]
 8001d66:	f003 0302 	and.w	r3, r3, #2
 8001d6a:	2b02      	cmp	r3, #2
 8001d6c:	d122      	bne.n	8001db4 <HAL_TIM_IRQHandler+0x5c>
  {
    if (__HAL_TIM_GET_IT_SOURCE(htim, TIM_IT_CC1) != RESET)
 8001d6e:	687b      	ldr	r3, [r7, #4]
 8001d70:	681b      	ldr	r3, [r3, #0]
 8001d72:	68db      	ldr	r3, [r3, #12]
 8001d74:	f003 0302 	and.w	r3, r3, #2
 8001d78:	2b02      	cmp	r3, #2
 8001d7a:	d11b      	bne.n	8001db4 <HAL_TIM_IRQHandler+0x5c>
    {
      {
        __HAL_TIM_CLEAR_IT(htim, TIM_IT_CC1);
 8001d7c:	687b      	ldr	r3, [r7, #4]
 8001d7e:	681b      	ldr	r3, [r3, #0]
 8001d80:	f06f 0202 	mvn.w	r2, #2
 8001d84:	611a      	str	r2, [r3, #16]
        htim->Channel = HAL_TIM_ACTIVE_CHANNEL_1;
 8001d86:	687b      	ldr	r3, [r7, #4]
 8001d88:	2201      	movs	r2, #1
 8001d8a:	771a      	strb	r2, [r3, #28]

        /* Input capture event */
        if ((htim->Instance->CCMR1 & TIM_CCMR1_CC1S) != 0x00U)
 8001d8c:	687b      	ldr	r3, [r7, #4]
 8001d8e:	681b      	ldr	r3, [r3, #0]
 8001d90:	699b      	ldr	r3, [r3, #24]
 8001d92:	f003 0303 	and.w	r3, r3, #3
 8001d96:	2b00      	cmp	r3, #0
 8001d98:	d003      	beq.n	8001da2 <HAL_TIM_IRQHandler+0x4a>
        {
#if (USE_HAL_TIM_REGISTER_CALLBACKS == 1)
          htim->IC_CaptureCallback(htim);
#else
          HAL_TIM_IC_CaptureCallback(htim);
 8001d9a:	6878      	ldr	r0, [r7, #4]
 8001d9c:	f000 f905 	bl	8001faa <HAL_TIM_IC_CaptureCallback>
 8001da0:	e005      	b.n	8001dae <HAL_TIM_IRQHandler+0x56>
        {
#if (USE_HAL_TIM_REGISTER_CALLBACKS == 1)
          htim->OC_DelayElapsedCallback(htim);
          htim->PWM_PulseFinishedCallback(htim);
#else
          HAL_TIM_OC_DelayElapsedCallback(htim);
 8001da2:	6878      	ldr	r0, [r7, #4]
 8001da4:	f000 f8f7 	bl	8001f96 <HAL_TIM_OC_DelayElapsedCallback>
          HAL_TIM_PWM_PulseFinishedCallback(htim);
 8001da8:	6878      	ldr	r0, [r7, #4]
 8001daa:	f000 f908 	bl	8001fbe <HAL_TIM_PWM_PulseFinishedCallback>
#endif /* USE_HAL_TIM_REGISTER_CALLBACKS */
        }
        htim->Channel = HAL_TIM_ACTIVE_CHANNEL_CLEARED;
 8001dae:	687b      	ldr	r3, [r7, #4]
 8001db0:	2200      	movs	r2, #0
 8001db2:	771a      	strb	r2, [r3, #28]
      }
    }
  }
  /* Capture compare 2 event */
  if (__HAL_TIM_GET_FLAG(htim, TIM_FLAG_CC2) != RESET)
 8001db4:	687b      	ldr	r3, [r7, #4]
 8001db6:	681b      	ldr	r3, [r3, #0]
 8001db8:	691b      	ldr	r3, [r3, #16]
 8001dba:	f003 0304 	and.w	r3, r3, #4
 8001dbe:	2b04      	cmp	r3, #4
 8001dc0:	d122      	bne.n	8001e08 <HAL_TIM_IRQHandler+0xb0>
  {
    if (__HAL_TIM_GET_IT_SOURCE(htim, TIM_IT_CC2) != RESET)
 8001dc2:	687b      	ldr	r3, [r7, #4]
 8001dc4:	681b      	ldr	r3, [r3, #0]
 8001dc6:	68db      	ldr	r3, [r3, #12]
 8001dc8:	f003 0304 	and.w	r3, r3, #4
 8001dcc:	2b04      	cmp	r3, #4
 8001dce:	d11b      	bne.n	8001e08 <HAL_TIM_IRQHandler+0xb0>
    {
      __HAL_TIM_CLEAR_IT(htim, TIM_IT_CC2);
 8001dd0:	687b      	ldr	r3, [r7, #4]
 8001dd2:	681b      	ldr	r3, [r3, #0]
 8001dd4:	f06f 0204 	mvn.w	r2, #4
 8001dd8:	611a      	str	r2, [r3, #16]
      htim->Channel = HAL_TIM_ACTIVE_CHANNEL_2;
 8001dda:	687b      	ldr	r3, [r7, #4]
 8001ddc:	2202      	movs	r2, #2
 8001dde:	771a      	strb	r2, [r3, #28]
      /* Input capture event */
      if ((htim->Instance->CCMR1 & TIM_CCMR1_CC2S) != 0x00U)
 8001de0:	687b      	ldr	r3, [r7, #4]
 8001de2:	681b      	ldr	r3, [r3, #0]
 8001de4:	699b      	ldr	r3, [r3, #24]
 8001de6:	f403 7340 	and.w	r3, r3, #768	; 0x300
 8001dea:	2b00      	cmp	r3, #0
 8001dec:	d003      	beq.n	8001df6 <HAL_TIM_IRQHandler+0x9e>
      {
#if (USE_HAL_TIM_REGISTER_CALLBACKS == 1)
        htim->IC_CaptureCallback(htim);
#else
        HAL_TIM_IC_CaptureCallback(htim);
 8001dee:	6878      	ldr	r0, [r7, #4]
 8001df0:	f000 f8db 	bl	8001faa <HAL_TIM_IC_CaptureCallback>
 8001df4:	e005      	b.n	8001e02 <HAL_TIM_IRQHandler+0xaa>
      {
#if (USE_HAL_TIM_REGISTER_CALLBACKS == 1)
        htim->OC_DelayElapsedCallback(htim);
        htim->PWM_PulseFinishedCallback(htim);
#else
        HAL_TIM_OC_DelayElapsedCallback(htim);
 8001df6:	6878      	ldr	r0, [r7, #4]
 8001df8:	f000 f8cd 	bl	8001f96 <HAL_TIM_OC_DelayElapsedCallback>
        HAL_TIM_PWM_PulseFinishedCallback(htim);
 8001dfc:	6878      	ldr	r0, [r7, #4]
 8001dfe:	f000 f8de 	bl	8001fbe <HAL_TIM_PWM_PulseFinishedCallback>
#endif /* USE_HAL_TIM_REGISTER_CALLBACKS */
      }
      htim->Channel = HAL_TIM_ACTIVE_CHANNEL_CLEARED;
 8001e02:	687b      	ldr	r3, [r7, #4]
 8001e04:	2200      	movs	r2, #0
 8001e06:	771a      	strb	r2, [r3, #28]
    }
  }
  /* Capture compare 3 event */
  if (__HAL_TIM_GET_FLAG(htim, TIM_FLAG_CC3) != RESET)
 8001e08:	687b      	ldr	r3, [r7, #4]
 8001e0a:	681b      	ldr	r3, [r3, #0]
 8001e0c:	691b      	ldr	r3, [r3, #16]
 8001e0e:	f003 0308 	and.w	r3, r3, #8
 8001e12:	2b08      	cmp	r3, #8
 8001e14:	d122      	bne.n	8001e5c <HAL_TIM_IRQHandler+0x104>
  {
    if (__HAL_TIM_GET_IT_SOURCE(htim, TIM_IT_CC3) != RESET)
 8001e16:	687b      	ldr	r3, [r7, #4]
 8001e18:	681b      	ldr	r3, [r3, #0]
 8001e1a:	68db      	ldr	r3, [r3, #12]
 8001e1c:	f003 0308 	and.w	r3, r3, #8
 8001e20:	2b08      	cmp	r3, #8
 8001e22:	d11b      	bne.n	8001e5c <HAL_TIM_IRQHandler+0x104>
    {
      __HAL_TIM_CLEAR_IT(htim, TIM_IT_CC3);
 8001e24:	687b      	ldr	r3, [r7, #4]
 8001e26:	681b      	ldr	r3, [r3, #0]
 8001e28:	f06f 0208 	mvn.w	r2, #8
 8001e2c:	611a      	str	r2, [r3, #16]
      htim->Channel = HAL_TIM_ACTIVE_CHANNEL_3;
 8001e2e:	687b      	ldr	r3, [r7, #4]
 8001e30:	2204      	movs	r2, #4
 8001e32:	771a      	strb	r2, [r3, #28]
      /* Input capture event */
      if ((htim->Instance->CCMR2 & TIM_CCMR2_CC3S) != 0x00U)
 8001e34:	687b      	ldr	r3, [r7, #4]
 8001e36:	681b      	ldr	r3, [r3, #0]
 8001e38:	69db      	ldr	r3, [r3, #28]
 8001e3a:	f003 0303 	and.w	r3, r3, #3
 8001e3e:	2b00      	cmp	r3, #0
 8001e40:	d003      	beq.n	8001e4a <HAL_TIM_IRQHandler+0xf2>
      {
#if (USE_HAL_TIM_REGISTER_CALLBACKS == 1)
        htim->IC_CaptureCallback(htim);
#else
        HAL_TIM_IC_CaptureCallback(htim);
 8001e42:	6878      	ldr	r0, [r7, #4]
 8001e44:	f000 f8b1 	bl	8001faa <HAL_TIM_IC_CaptureCallback>
 8001e48:	e005      	b.n	8001e56 <HAL_TIM_IRQHandler+0xfe>
      {
#if (USE_HAL_TIM_REGISTER_CALLBACKS == 1)
        htim->OC_DelayElapsedCallback(htim);
        htim->PWM_PulseFinishedCallback(htim);
#else
        HAL_TIM_OC_DelayElapsedCallback(htim);
 8001e4a:	6878      	ldr	r0, [r7, #4]
 8001e4c:	f000 f8a3 	bl	8001f96 <HAL_TIM_OC_DelayElapsedCallback>
        HAL_TIM_PWM_PulseFinishedCallback(htim);
 8001e50:	6878      	ldr	r0, [r7, #4]
 8001e52:	f000 f8b4 	bl	8001fbe <HAL_TIM_PWM_PulseFinishedCallback>
#endif /* USE_HAL_TIM_REGISTER_CALLBACKS */
      }
      htim->Channel = HAL_TIM_ACTIVE_CHANNEL_CLEARED;
 8001e56:	687b      	ldr	r3, [r7, #4]
 8001e58:	2200      	movs	r2, #0
 8001e5a:	771a      	strb	r2, [r3, #28]
    }
  }
  /* Capture compare 4 event */
  if (__HAL_TIM_GET_FLAG(htim, TIM_FLAG_CC4) != RESET)
 8001e5c:	687b      	ldr	r3, [r7, #4]
 8001e5e:	681b      	ldr	r3, [r3, #0]
 8001e60:	691b      	ldr	r3, [r3, #16]
 8001e62:	f003 0310 	and.w	r3, r3, #16
 8001e66:	2b10      	cmp	r3, #16
 8001e68:	d122      	bne.n	8001eb0 <HAL_TIM_IRQHandler+0x158>
  {
    if (__HAL_TIM_GET_IT_SOURCE(htim, TIM_IT_CC4) != RESET)
 8001e6a:	687b      	ldr	r3, [r7, #4]
 8001e6c:	681b      	ldr	r3, [r3, #0]
 8001e6e:	68db      	ldr	r3, [r3, #12]
 8001e70:	f003 0310 	and.w	r3, r3, #16
 8001e74:	2b10      	cmp	r3, #16
 8001e76:	d11b      	bne.n	8001eb0 <HAL_TIM_IRQHandler+0x158>
    {
      __HAL_TIM_CLEAR_IT(htim, TIM_IT_CC4);
 8001e78:	687b      	ldr	r3, [r7, #4]
 8001e7a:	681b      	ldr	r3, [r3, #0]
 8001e7c:	f06f 0210 	mvn.w	r2, #16
 8001e80:	611a      	str	r2, [r3, #16]
      htim->Channel = HAL_TIM_ACTIVE_CHANNEL_4;
 8001e82:	687b      	ldr	r3, [r7, #4]
 8001e84:	2208      	movs	r2, #8
 8001e86:	771a      	strb	r2, [r3, #28]
      /* Input capture event */
      if ((htim->Instance->CCMR2 & TIM_CCMR2_CC4S) != 0x00U)
 8001e88:	687b      	ldr	r3, [r7, #4]
 8001e8a:	681b      	ldr	r3, [r3, #0]
 8001e8c:	69db      	ldr	r3, [r3, #28]
 8001e8e:	f403 7340 	and.w	r3, r3, #768	; 0x300
 8001e92:	2b00      	cmp	r3, #0
 8001e94:	d003      	beq.n	8001e9e <HAL_TIM_IRQHandler+0x146>
      {
#if (USE_HAL_TIM_REGISTER_CALLBACKS == 1)
        htim->IC_CaptureCallback(htim);
#else
        HAL_TIM_IC_CaptureCallback(htim);
 8001e96:	6878      	ldr	r0, [r7, #4]
 8001e98:	f000 f887 	bl	8001faa <HAL_TIM_IC_CaptureCallback>
 8001e9c:	e005      	b.n	8001eaa <HAL_TIM_IRQHandler+0x152>
      {
#if (USE_HAL_TIM_REGISTER_CALLBACKS == 1)
        htim->OC_DelayElapsedCallback(htim);
        htim->PWM_PulseFinishedCallback(htim);
#else
        HAL_TIM_OC_DelayElapsedCallback(htim);
 8001e9e:	6878      	ldr	r0, [r7, #4]
 8001ea0:	f000 f879 	bl	8001f96 <HAL_TIM_OC_DelayElapsedCallback>
        HAL_TIM_PWM_PulseFinishedCallback(htim);
 8001ea4:	6878      	ldr	r0, [r7, #4]
 8001ea6:	f000 f88a 	bl	8001fbe <HAL_TIM_PWM_PulseFinishedCallback>
#endif /* USE_HAL_TIM_REGISTER_CALLBACKS */
      }
      htim->Channel = HAL_TIM_ACTIVE_CHANNEL_CLEARED;
 8001eaa:	687b      	ldr	r3, [r7, #4]
 8001eac:	2200      	movs	r2, #0
 8001eae:	771a      	strb	r2, [r3, #28]
    }
  }
  /* TIM Update event */
  if (__HAL_TIM_GET_FLAG(htim, TIM_FLAG_UPDATE) != RESET)
 8001eb0:	687b      	ldr	r3, [r7, #4]
 8001eb2:	681b      	ldr	r3, [r3, #0]
 8001eb4:	691b      	ldr	r3, [r3, #16]
 8001eb6:	f003 0301 	and.w	r3, r3, #1
 8001eba:	2b01      	cmp	r3, #1
 8001ebc:	d10e      	bne.n	8001edc <HAL_TIM_IRQHandler+0x184>
  {
    if (__HAL_TIM_GET_IT_SOURCE(htim, TIM_IT_UPDATE) != RESET)
 8001ebe:	687b      	ldr	r3, [r7, #4]
 8001ec0:	681b      	ldr	r3, [r3, #0]
 8001ec2:	68db      	ldr	r3, [r3, #12]
 8001ec4:	f003 0301 	and.w	r3, r3, #1
 8001ec8:	2b01      	cmp	r3, #1
 8001eca:	d107      	bne.n	8001edc <HAL_TIM_IRQHandler+0x184>
    {
      __HAL_TIM_CLEAR_IT(htim, TIM_IT_UPDATE);
 8001ecc:	687b      	ldr	r3, [r7, #4]
 8001ece:	681b      	ldr	r3, [r3, #0]
 8001ed0:	f06f 0201 	mvn.w	r2, #1
 8001ed4:	611a      	str	r2, [r3, #16]
#if (USE_HAL_TIM_REGISTER_CALLBACKS == 1)
      htim->PeriodElapsedCallback(htim);
#else
      HAL_TIM_PeriodElapsedCallback(htim);
 8001ed6:	6878      	ldr	r0, [r7, #4]
 8001ed8:	f7fe fa4c 	bl	8000374 <HAL_TIM_PeriodElapsedCallback>
#endif /* USE_HAL_TIM_REGISTER_CALLBACKS */
    }
  }
  /* TIM Break input event */
  if (__HAL_TIM_GET_FLAG(htim, TIM_FLAG_BREAK) != RESET)
 8001edc:	687b      	ldr	r3, [r7, #4]
 8001ede:	681b      	ldr	r3, [r3, #0]
 8001ee0:	691b      	ldr	r3, [r3, #16]
 8001ee2:	f003 0380 	and.w	r3, r3, #128	; 0x80
 8001ee6:	2b80      	cmp	r3, #128	; 0x80
 8001ee8:	d10e      	bne.n	8001f08 <HAL_TIM_IRQHandler+0x1b0>
  {
    if (__HAL_TIM_GET_IT_SOURCE(htim, TIM_IT_BREAK) != RESET)
 8001eea:	687b      	ldr	r3, [r7, #4]
 8001eec:	681b      	ldr	r3, [r3, #0]
 8001eee:	68db      	ldr	r3, [r3, #12]
 8001ef0:	f003 0380 	and.w	r3, r3, #128	; 0x80
 8001ef4:	2b80      	cmp	r3, #128	; 0x80
 8001ef6:	d107      	bne.n	8001f08 <HAL_TIM_IRQHandler+0x1b0>
    {
      __HAL_TIM_CLEAR_IT(htim, TIM_IT_BREAK);
 8001ef8:	687b      	ldr	r3, [r7, #4]
 8001efa:	681b      	ldr	r3, [r3, #0]
 8001efc:	f06f 0280 	mvn.w	r2, #128	; 0x80
 8001f00:	611a      	str	r2, [r3, #16]
#if (USE_HAL_TIM_REGISTER_CALLBACKS == 1)
      htim->BreakCallback(htim);
#else
      HAL_TIMEx_BreakCallback(htim);
 8001f02:	6878      	ldr	r0, [r7, #4]
 8001f04:	f000 f8de 	bl	80020c4 <HAL_TIMEx_BreakCallback>
#endif /* USE_HAL_TIM_REGISTER_CALLBACKS */
    }
  }
  /* TIM Break2 input event */
  if (__HAL_TIM_GET_FLAG(htim, TIM_FLAG_BREAK2) != RESET)
 8001f08:	687b      	ldr	r3, [r7, #4]
 8001f0a:	681b      	ldr	r3, [r3, #0]
 8001f0c:	691b      	ldr	r3, [r3, #16]
 8001f0e:	f403 7380 	and.w	r3, r3, #256	; 0x100
 8001f12:	f5b3 7f80 	cmp.w	r3, #256	; 0x100
 8001f16:	d10e      	bne.n	8001f36 <HAL_TIM_IRQHandler+0x1de>
  {
    if (__HAL_TIM_GET_IT_SOURCE(htim, TIM_IT_BREAK) != RESET)
 8001f18:	687b      	ldr	r3, [r7, #4]
 8001f1a:	681b      	ldr	r3, [r3, #0]
 8001f1c:	68db      	ldr	r3, [r3, #12]
 8001f1e:	f003 0380 	and.w	r3, r3, #128	; 0x80
 8001f22:	2b80      	cmp	r3, #128	; 0x80
 8001f24:	d107      	bne.n	8001f36 <HAL_TIM_IRQHandler+0x1de>
    {
      __HAL_TIM_CLEAR_FLAG(htim, TIM_FLAG_BREAK2);
 8001f26:	687b      	ldr	r3, [r7, #4]
 8001f28:	681b      	ldr	r3, [r3, #0]
 8001f2a:	f46f 7280 	mvn.w	r2, #256	; 0x100
 8001f2e:	611a      	str	r2, [r3, #16]
#if (USE_HAL_TIM_REGISTER_CALLBACKS == 1)
      htim->Break2Callback(htim);
#else
      HAL_TIMEx_Break2Callback(htim);
 8001f30:	6878      	ldr	r0, [r7, #4]
 8001f32:	f000 f8d1 	bl	80020d8 <HAL_TIMEx_Break2Callback>
#endif /* USE_HAL_TIM_REGISTER_CALLBACKS */
    }
  }
  /* TIM Trigger detection event */
  if (__HAL_TIM_GET_FLAG(htim, TIM_FLAG_TRIGGER) != RESET)
 8001f36:	687b      	ldr	r3, [r7, #4]
 8001f38:	681b      	ldr	r3, [r3, #0]
 8001f3a:	691b      	ldr	r3, [r3, #16]
 8001f3c:	f003 0340 	and.w	r3, r3, #64	; 0x40
 8001f40:	2b40      	cmp	r3, #64	; 0x40
 8001f42:	d10e      	bne.n	8001f62 <HAL_TIM_IRQHandler+0x20a>
  {
    if (__HAL_TIM_GET_IT_SOURCE(htim, TIM_IT_TRIGGER) != RESET)
 8001f44:	687b      	ldr	r3, [r7, #4]
 8001f46:	681b      	ldr	r3, [r3, #0]
 8001f48:	68db      	ldr	r3, [r3, #12]
 8001f4a:	f003 0340 	and.w	r3, r3, #64	; 0x40
 8001f4e:	2b40      	cmp	r3, #64	; 0x40
 8001f50:	d107      	bne.n	8001f62 <HAL_TIM_IRQHandler+0x20a>
    {
      __HAL_TIM_CLEAR_IT(htim, TIM_IT_TRIGGER);
 8001f52:	687b      	ldr	r3, [r7, #4]
 8001f54:	681b      	ldr	r3, [r3, #0]
 8001f56:	f06f 0240 	mvn.w	r2, #64	; 0x40
 8001f5a:	611a      	str	r2, [r3, #16]
#if (USE_HAL_TIM_REGISTER_CALLBACKS == 1)
      htim->TriggerCallback(htim);
#else
      HAL_TIM_TriggerCallback(htim);
 8001f5c:	6878      	ldr	r0, [r7, #4]
 8001f5e:	f000 f838 	bl	8001fd2 <HAL_TIM_TriggerCallback>
#endif /* USE_HAL_TIM_REGISTER_CALLBACKS */
    }
  }
  /* TIM commutation event */
  if (__HAL_TIM_GET_FLAG(htim, TIM_FLAG_COM) != RESET)
 8001f62:	687b      	ldr	r3, [r7, #4]
 8001f64:	681b      	ldr	r3, [r3, #0]
 8001f66:	691b      	ldr	r3, [r3, #16]
 8001f68:	f003 0320 	and.w	r3, r3, #32
 8001f6c:	2b20      	cmp	r3, #32
 8001f6e:	d10e      	bne.n	8001f8e <HAL_TIM_IRQHandler+0x236>
  {
    if (__HAL_TIM_GET_IT_SOURCE(htim, TIM_IT_COM) != RESET)
 8001f70:	687b      	ldr	r3, [r7, #4]
 8001f72:	681b      	ldr	r3, [r3, #0]
 8001f74:	68db      	ldr	r3, [r3, #12]
 8001f76:	f003 0320 	and.w	r3, r3, #32
 8001f7a:	2b20      	cmp	r3, #32
 8001f7c:	d107      	bne.n	8001f8e <HAL_TIM_IRQHandler+0x236>
    {
      __HAL_TIM_CLEAR_IT(htim, TIM_FLAG_COM);
 8001f7e:	687b      	ldr	r3, [r7, #4]
 8001f80:	681b      	ldr	r3, [r3, #0]
 8001f82:	f06f 0220 	mvn.w	r2, #32
 8001f86:	611a      	str	r2, [r3, #16]
#if (USE_HAL_TIM_REGISTER_CALLBACKS == 1)
      htim->CommutationCallback(htim);
#else
      HAL_TIMEx_CommutCallback(htim);
 8001f88:	6878      	ldr	r0, [r7, #4]
 8001f8a:	f000 f891 	bl	80020b0 <HAL_TIMEx_CommutCallback>
#endif /* USE_HAL_TIM_REGISTER_CALLBACKS */
    }
  }
}
 8001f8e:	bf00      	nop
 8001f90:	3708      	adds	r7, #8
 8001f92:	46bd      	mov	sp, r7
 8001f94:	bd80      	pop	{r7, pc}

08001f96 <HAL_TIM_OC_DelayElapsedCallback>:
  * @brief  Output Compare callback in non-blocking mode
  * @param  htim TIM OC handle
  * @retval None
  */
__weak void HAL_TIM_OC_DelayElapsedCallback(TIM_HandleTypeDef *htim)
{
 8001f96:	b480      	push	{r7}
 8001f98:	b083      	sub	sp, #12
 8001f9a:	af00      	add	r7, sp, #0
 8001f9c:	6078      	str	r0, [r7, #4]
  UNUSED(htim);

  /* NOTE : This function should not be modified, when the callback is needed,
            the HAL_TIM_OC_DelayElapsedCallback could be implemented in the user file
   */
}
 8001f9e:	bf00      	nop
 8001fa0:	370c      	adds	r7, #12
 8001fa2:	46bd      	mov	sp, r7
 8001fa4:	f85d 7b04 	ldr.w	r7, [sp], #4
 8001fa8:	4770      	bx	lr

08001faa <HAL_TIM_IC_CaptureCallback>:
  * @brief  Input Capture callback in non-blocking mode
  * @param  htim TIM IC handle
  * @retval None
  */
__weak void HAL_TIM_IC_CaptureCallback(TIM_HandleTypeDef *htim)
{
 8001faa:	b480      	push	{r7}
 8001fac:	b083      	sub	sp, #12
 8001fae:	af00      	add	r7, sp, #0
 8001fb0:	6078      	str	r0, [r7, #4]
  UNUSED(htim);

  /* NOTE : This function should not be modified, when the callback is needed,
            the HAL_TIM_IC_CaptureCallback could be implemented in the user file
   */
}
 8001fb2:	bf00      	nop
 8001fb4:	370c      	adds	r7, #12
 8001fb6:	46bd      	mov	sp, r7
 8001fb8:	f85d 7b04 	ldr.w	r7, [sp], #4
 8001fbc:	4770      	bx	lr

08001fbe <HAL_TIM_PWM_PulseFinishedCallback>:
  * @brief  PWM Pulse finished callback in non-blocking mode
  * @param  htim TIM handle
  * @retval None
  */
__weak void HAL_TIM_PWM_PulseFinishedCallback(TIM_HandleTypeDef *htim)
{
 8001fbe:	b480      	push	{r7}
 8001fc0:	b083      	sub	sp, #12
 8001fc2:	af00      	add	r7, sp, #0
 8001fc4:	6078      	str	r0, [r7, #4]
  UNUSED(htim);

  /* NOTE : This function should not be modified, when the callback is needed,
            the HAL_TIM_PWM_PulseFinishedCallback could be implemented in the user file
   */
}
 8001fc6:	bf00      	nop
 8001fc8:	370c      	adds	r7, #12
 8001fca:	46bd      	mov	sp, r7
 8001fcc:	f85d 7b04 	ldr.w	r7, [sp], #4
 8001fd0:	4770      	bx	lr

08001fd2 <HAL_TIM_TriggerCallback>:
  * @brief  Hall Trigger detection callback in non-blocking mode
  * @param  htim TIM handle
  * @retval None
  */
__weak void HAL_TIM_TriggerCallback(TIM_HandleTypeDef *htim)
{
 8001fd2:	b480      	push	{r7}
 8001fd4:	b083      	sub	sp, #12
 8001fd6:	af00      	add	r7, sp, #0
 8001fd8:	6078      	str	r0, [r7, #4]
  UNUSED(htim);

  /* NOTE : This function should not be modified, when the callback is needed,
            the HAL_TIM_TriggerCallback could be implemented in the user file
   */
}
 8001fda:	bf00      	nop
 8001fdc:	370c      	adds	r7, #12
 8001fde:	46bd      	mov	sp, r7
 8001fe0:	f85d 7b04 	ldr.w	r7, [sp], #4
 8001fe4:	4770      	bx	lr
	...

08001fe8 <TIM_Base_SetConfig>:
  * @param  TIMx TIM peripheral
  * @param  Structure TIM Base configuration structure
  * @retval None
  */
void TIM_Base_SetConfig(TIM_TypeDef *TIMx, TIM_Base_InitTypeDef *Structure)
{
 8001fe8:	b480      	push	{r7}
 8001fea:	b085      	sub	sp, #20
 8001fec:	af00      	add	r7, sp, #0
 8001fee:	6078      	str	r0, [r7, #4]
 8001ff0:	6039      	str	r1, [r7, #0]
  uint32_t tmpcr1;
  tmpcr1 = TIMx->CR1;
 8001ff2:	687b      	ldr	r3, [r7, #4]
 8001ff4:	681b      	ldr	r3, [r3, #0]
 8001ff6:	60fb      	str	r3, [r7, #12]

  /* Set TIM Time Base Unit parameters ---------------------------------------*/
  if (IS_TIM_COUNTER_MODE_SELECT_INSTANCE(TIMx))
 8001ff8:	687b      	ldr	r3, [r7, #4]
 8001ffa:	4a2a      	ldr	r2, [pc, #168]	; (80020a4 <TIM_Base_SetConfig+0xbc>)
 8001ffc:	4293      	cmp	r3, r2
 8001ffe:	d003      	beq.n	8002008 <TIM_Base_SetConfig+0x20>
 8002000:	687b      	ldr	r3, [r7, #4]
 8002002:	f1b3 4f80 	cmp.w	r3, #1073741824	; 0x40000000
 8002006:	d108      	bne.n	800201a <TIM_Base_SetConfig+0x32>
  {
    /* Select the Counter Mode */
    tmpcr1 &= ~(TIM_CR1_DIR | TIM_CR1_CMS);
 8002008:	68fb      	ldr	r3, [r7, #12]
 800200a:	f023 0370 	bic.w	r3, r3, #112	; 0x70
 800200e:	60fb      	str	r3, [r7, #12]
    tmpcr1 |= Structure->CounterMode;
 8002010:	683b      	ldr	r3, [r7, #0]
 8002012:	685b      	ldr	r3, [r3, #4]
 8002014:	68fa      	ldr	r2, [r7, #12]
 8002016:	4313      	orrs	r3, r2
 8002018:	60fb      	str	r3, [r7, #12]
  }

  if (IS_TIM_CLOCK_DIVISION_INSTANCE(TIMx))
 800201a:	687b      	ldr	r3, [r7, #4]
 800201c:	4a21      	ldr	r2, [pc, #132]	; (80020a4 <TIM_Base_SetConfig+0xbc>)
 800201e:	4293      	cmp	r3, r2
 8002020:	d00b      	beq.n	800203a <TIM_Base_SetConfig+0x52>
 8002022:	687b      	ldr	r3, [r7, #4]
 8002024:	f1b3 4f80 	cmp.w	r3, #1073741824	; 0x40000000
 8002028:	d007      	beq.n	800203a <TIM_Base_SetConfig+0x52>
 800202a:	687b      	ldr	r3, [r7, #4]
 800202c:	4a1e      	ldr	r2, [pc, #120]	; (80020a8 <TIM_Base_SetConfig+0xc0>)
 800202e:	4293      	cmp	r3, r2
 8002030:	d003      	beq.n	800203a <TIM_Base_SetConfig+0x52>
 8002032:	687b      	ldr	r3, [r7, #4]
 8002034:	4a1d      	ldr	r2, [pc, #116]	; (80020ac <TIM_Base_SetConfig+0xc4>)
 8002036:	4293      	cmp	r3, r2
 8002038:	d108      	bne.n	800204c <TIM_Base_SetConfig+0x64>
  {
    /* Set the clock division */
    tmpcr1 &= ~TIM_CR1_CKD;
 800203a:	68fb      	ldr	r3, [r7, #12]
 800203c:	f423 7340 	bic.w	r3, r3, #768	; 0x300
 8002040:	60fb      	str	r3, [r7, #12]
    tmpcr1 |= (uint32_t)Structure->ClockDivision;
 8002042:	683b      	ldr	r3, [r7, #0]
 8002044:	68db      	ldr	r3, [r3, #12]
 8002046:	68fa      	ldr	r2, [r7, #12]
 8002048:	4313      	orrs	r3, r2
 800204a:	60fb      	str	r3, [r7, #12]
  }

  /* Set the auto-reload preload */
  MODIFY_REG(tmpcr1, TIM_CR1_ARPE, Structure->AutoReloadPreload);
 800204c:	68fb      	ldr	r3, [r7, #12]
 800204e:	f023 0280 	bic.w	r2, r3, #128	; 0x80
 8002052:	683b      	ldr	r3, [r7, #0]
 8002054:	695b      	ldr	r3, [r3, #20]
 8002056:	4313      	orrs	r3, r2
 8002058:	60fb      	str	r3, [r7, #12]

  TIMx->CR1 = tmpcr1;
 800205a:	687b      	ldr	r3, [r7, #4]
 800205c:	68fa      	ldr	r2, [r7, #12]
 800205e:	601a      	str	r2, [r3, #0]

  /* Set the Autoreload value */
  TIMx->ARR = (uint32_t)Structure->Period ;
 8002060:	683b      	ldr	r3, [r7, #0]
 8002062:	689a      	ldr	r2, [r3, #8]
 8002064:	687b      	ldr	r3, [r7, #4]
 8002066:	62da      	str	r2, [r3, #44]	; 0x2c

  /* Set the Prescaler value */
  TIMx->PSC = Structure->Prescaler;
 8002068:	683b      	ldr	r3, [r7, #0]
 800206a:	681a      	ldr	r2, [r3, #0]
 800206c:	687b      	ldr	r3, [r7, #4]
 800206e:	629a      	str	r2, [r3, #40]	; 0x28

  if (IS_TIM_REPETITION_COUNTER_INSTANCE(TIMx))
 8002070:	687b      	ldr	r3, [r7, #4]
 8002072:	4a0c      	ldr	r2, [pc, #48]	; (80020a4 <TIM_Base_SetConfig+0xbc>)
 8002074:	4293      	cmp	r3, r2
 8002076:	d007      	beq.n	8002088 <TIM_Base_SetConfig+0xa0>
 8002078:	687b      	ldr	r3, [r7, #4]
 800207a:	4a0b      	ldr	r2, [pc, #44]	; (80020a8 <TIM_Base_SetConfig+0xc0>)
 800207c:	4293      	cmp	r3, r2
 800207e:	d003      	beq.n	8002088 <TIM_Base_SetConfig+0xa0>
 8002080:	687b      	ldr	r3, [r7, #4]
 8002082:	4a0a      	ldr	r2, [pc, #40]	; (80020ac <TIM_Base_SetConfig+0xc4>)
 8002084:	4293      	cmp	r3, r2
 8002086:	d103      	bne.n	8002090 <TIM_Base_SetConfig+0xa8>
  {
    /* Set the Repetition Counter value */
    TIMx->RCR = Structure->RepetitionCounter;
 8002088:	683b      	ldr	r3, [r7, #0]
 800208a:	691a      	ldr	r2, [r3, #16]
 800208c:	687b      	ldr	r3, [r7, #4]
 800208e:	631a      	str	r2, [r3, #48]	; 0x30
  }

  /* Generate an update event to reload the Prescaler
     and the repetition counter (only for advanced timer) value immediately */
  TIMx->EGR = TIM_EGR_UG;
 8002090:	687b      	ldr	r3, [r7, #4]
 8002092:	2201      	movs	r2, #1
 8002094:	615a      	str	r2, [r3, #20]
}
 8002096:	bf00      	nop
 8002098:	3714      	adds	r7, #20
 800209a:	46bd      	mov	sp, r7
 800209c:	f85d 7b04 	ldr.w	r7, [sp], #4
 80020a0:	4770      	bx	lr
 80020a2:	bf00      	nop
 80020a4:	40012c00 	.word	0x40012c00
 80020a8:	40014000 	.word	0x40014000
 80020ac:	40014400 	.word	0x40014400

080020b0 <HAL_TIMEx_CommutCallback>:
  * @brief  Hall commutation changed callback in non-blocking mode
  * @param  htim TIM handle
  * @retval None
  */
__weak void HAL_TIMEx_CommutCallback(TIM_HandleTypeDef *htim)
{
 80020b0:	b480      	push	{r7}
 80020b2:	b083      	sub	sp, #12
 80020b4:	af00      	add	r7, sp, #0
 80020b6:	6078      	str	r0, [r7, #4]
  UNUSED(htim);

  /* NOTE : This function should not be modified, when the callback is needed,
            the HAL_TIMEx_CommutCallback could be implemented in the user file
   */
}
 80020b8:	bf00      	nop
 80020ba:	370c      	adds	r7, #12
 80020bc:	46bd      	mov	sp, r7
 80020be:	f85d 7b04 	ldr.w	r7, [sp], #4
 80020c2:	4770      	bx	lr

080020c4 <HAL_TIMEx_BreakCallback>:
  * @brief  Hall Break detection callback in non-blocking mode
  * @param  htim TIM handle
  * @retval None
  */
__weak void HAL_TIMEx_BreakCallback(TIM_HandleTypeDef *htim)
{
 80020c4:	b480      	push	{r7}
 80020c6:	b083      	sub	sp, #12
 80020c8:	af00      	add	r7, sp, #0
 80020ca:	6078      	str	r0, [r7, #4]
  UNUSED(htim);

  /* NOTE : This function should not be modified, when the callback is needed,
            the HAL_TIMEx_BreakCallback could be implemented in the user file
   */
}
 80020cc:	bf00      	nop
 80020ce:	370c      	adds	r7, #12
 80020d0:	46bd      	mov	sp, r7
 80020d2:	f85d 7b04 	ldr.w	r7, [sp], #4
 80020d6:	4770      	bx	lr

080020d8 <HAL_TIMEx_Break2Callback>:
  * @brief  Hall Break2 detection callback in non blocking mode
  * @param  htim TIM handle
  * @retval None
  */
__weak void HAL_TIMEx_Break2Callback(TIM_HandleTypeDef *htim)
{
 80020d8:	b480      	push	{r7}
 80020da:	b083      	sub	sp, #12
 80020dc:	af00      	add	r7, sp, #0
 80020de:	6078      	str	r0, [r7, #4]
  UNUSED(htim);

  /* NOTE : This function Should not be modified, when the callback is needed,
            the HAL_TIMEx_Break2Callback could be implemented in the user file
   */
}
 80020e0:	bf00      	nop
 80020e2:	370c      	adds	r7, #12
 80020e4:	46bd      	mov	sp, r7
 80020e6:	f85d 7b04 	ldr.w	r7, [sp], #4
 80020ea:	4770      	bx	lr

080020ec <memset>:
 80020ec:	4402      	add	r2, r0
 80020ee:	4603      	mov	r3, r0
 80020f0:	4293      	cmp	r3, r2
 80020f2:	d100      	bne.n	80020f6 <memset+0xa>
 80020f4:	4770      	bx	lr
 80020f6:	f803 1b01 	strb.w	r1, [r3], #1
 80020fa:	e7f9      	b.n	80020f0 <memset+0x4>

080020fc <_init>:
 80020fc:	b5f8      	push	{r3, r4, r5, r6, r7, lr}
 80020fe:	bf00      	nop
 8002100:	bcf8      	pop	{r3, r4, r5, r6, r7}
 8002102:	bc08      	pop	{r3}
 8002104:	469e      	mov	lr, r3
 8002106:	4770      	bx	lr

08002108 <_fini>:
 8002108:	b5f8      	push	{r3, r4, r5, r6, r7, lr}
 800210a:	bf00      	nop
 800210c:	bcf8      	pop	{r3, r4, r5, r6, r7}
 800210e:	bc08      	pop	{r3}
 8002110:	469e      	mov	lr, r3
 8002112:	4770      	bx	lr
